
flapjack:     file format elf64-x86-64


Disassembly of section .init:

0000000000004000 <_init>:
    4000:	f3 0f 1e fa          	endbr64
    4004:	48 83 ec 08          	sub    rsp,0x8
    4008:	48 8b 05 e9 2f 01 00 	mov    rax,QWORD PTR [rip+0x12fe9]        # 16ff8 <__gmon_start__@Base>
    400f:	48 85 c0             	test   rax,rax
    4012:	74 02                	je     4016 <_init+0x16>
    4014:	ff d0                	call   rax
    4016:	48 83 c4 08          	add    rsp,0x8
    401a:	c3                   	ret

Disassembly of section .plt:

0000000000004020 <.plt>:
    4020:	ff 35 72 2d 01 00    	push   QWORD PTR [rip+0x12d72]        # 16d98 <_GLOBAL_OFFSET_TABLE_+0x8>
    4026:	ff 25 74 2d 01 00    	jmp    QWORD PTR [rip+0x12d74]        # 16da0 <_GLOBAL_OFFSET_TABLE_+0x10>
    402c:	0f 1f 40 00          	nop    DWORD PTR [rax+0x0]
    4030:	f3 0f 1e fa          	endbr64
    4034:	68 00 00 00 00       	push   0x0
    4039:	e9 e2 ff ff ff       	jmp    4020 <_init+0x20>
    403e:	66 90                	xchg   ax,ax
    4040:	f3 0f 1e fa          	endbr64
    4044:	68 01 00 00 00       	push   0x1
    4049:	e9 d2 ff ff ff       	jmp    4020 <_init+0x20>
    404e:	66 90                	xchg   ax,ax
    4050:	f3 0f 1e fa          	endbr64
    4054:	68 02 00 00 00       	push   0x2
    4059:	e9 c2 ff ff ff       	jmp    4020 <_init+0x20>
    405e:	66 90                	xchg   ax,ax
    4060:	f3 0f 1e fa          	endbr64
    4064:	68 03 00 00 00       	push   0x3
    4069:	e9 b2 ff ff ff       	jmp    4020 <_init+0x20>
    406e:	66 90                	xchg   ax,ax
    4070:	f3 0f 1e fa          	endbr64
    4074:	68 04 00 00 00       	push   0x4
    4079:	e9 a2 ff ff ff       	jmp    4020 <_init+0x20>
    407e:	66 90                	xchg   ax,ax
    4080:	f3 0f 1e fa          	endbr64
    4084:	68 05 00 00 00       	push   0x5
    4089:	e9 92 ff ff ff       	jmp    4020 <_init+0x20>
    408e:	66 90                	xchg   ax,ax
    4090:	f3 0f 1e fa          	endbr64
    4094:	68 06 00 00 00       	push   0x6
    4099:	e9 82 ff ff ff       	jmp    4020 <_init+0x20>
    409e:	66 90                	xchg   ax,ax
    40a0:	f3 0f 1e fa          	endbr64
    40a4:	68 07 00 00 00       	push   0x7
    40a9:	e9 72 ff ff ff       	jmp    4020 <_init+0x20>
    40ae:	66 90                	xchg   ax,ax
    40b0:	f3 0f 1e fa          	endbr64
    40b4:	68 08 00 00 00       	push   0x8
    40b9:	e9 62 ff ff ff       	jmp    4020 <_init+0x20>
    40be:	66 90                	xchg   ax,ax
    40c0:	f3 0f 1e fa          	endbr64
    40c4:	68 09 00 00 00       	push   0x9
    40c9:	e9 52 ff ff ff       	jmp    4020 <_init+0x20>
    40ce:	66 90                	xchg   ax,ax
    40d0:	f3 0f 1e fa          	endbr64
    40d4:	68 0a 00 00 00       	push   0xa
    40d9:	e9 42 ff ff ff       	jmp    4020 <_init+0x20>
    40de:	66 90                	xchg   ax,ax
    40e0:	f3 0f 1e fa          	endbr64
    40e4:	68 0b 00 00 00       	push   0xb
    40e9:	e9 32 ff ff ff       	jmp    4020 <_init+0x20>
    40ee:	66 90                	xchg   ax,ax
    40f0:	f3 0f 1e fa          	endbr64
    40f4:	68 0c 00 00 00       	push   0xc
    40f9:	e9 22 ff ff ff       	jmp    4020 <_init+0x20>
    40fe:	66 90                	xchg   ax,ax
    4100:	f3 0f 1e fa          	endbr64
    4104:	68 0d 00 00 00       	push   0xd
    4109:	e9 12 ff ff ff       	jmp    4020 <_init+0x20>
    410e:	66 90                	xchg   ax,ax
    4110:	f3 0f 1e fa          	endbr64
    4114:	68 0e 00 00 00       	push   0xe
    4119:	e9 02 ff ff ff       	jmp    4020 <_init+0x20>
    411e:	66 90                	xchg   ax,ax
    4120:	f3 0f 1e fa          	endbr64
    4124:	68 0f 00 00 00       	push   0xf
    4129:	e9 f2 fe ff ff       	jmp    4020 <_init+0x20>
    412e:	66 90                	xchg   ax,ax
    4130:	f3 0f 1e fa          	endbr64
    4134:	68 10 00 00 00       	push   0x10
    4139:	e9 e2 fe ff ff       	jmp    4020 <_init+0x20>
    413e:	66 90                	xchg   ax,ax
    4140:	f3 0f 1e fa          	endbr64
    4144:	68 11 00 00 00       	push   0x11
    4149:	e9 d2 fe ff ff       	jmp    4020 <_init+0x20>
    414e:	66 90                	xchg   ax,ax
    4150:	f3 0f 1e fa          	endbr64
    4154:	68 12 00 00 00       	push   0x12
    4159:	e9 c2 fe ff ff       	jmp    4020 <_init+0x20>
    415e:	66 90                	xchg   ax,ax
    4160:	f3 0f 1e fa          	endbr64
    4164:	68 13 00 00 00       	push   0x13
    4169:	e9 b2 fe ff ff       	jmp    4020 <_init+0x20>
    416e:	66 90                	xchg   ax,ax
    4170:	f3 0f 1e fa          	endbr64
    4174:	68 14 00 00 00       	push   0x14
    4179:	e9 a2 fe ff ff       	jmp    4020 <_init+0x20>
    417e:	66 90                	xchg   ax,ax
    4180:	f3 0f 1e fa          	endbr64
    4184:	68 15 00 00 00       	push   0x15
    4189:	e9 92 fe ff ff       	jmp    4020 <_init+0x20>
    418e:	66 90                	xchg   ax,ax
    4190:	f3 0f 1e fa          	endbr64
    4194:	68 16 00 00 00       	push   0x16
    4199:	e9 82 fe ff ff       	jmp    4020 <_init+0x20>
    419e:	66 90                	xchg   ax,ax
    41a0:	f3 0f 1e fa          	endbr64
    41a4:	68 17 00 00 00       	push   0x17
    41a9:	e9 72 fe ff ff       	jmp    4020 <_init+0x20>
    41ae:	66 90                	xchg   ax,ax
    41b0:	f3 0f 1e fa          	endbr64
    41b4:	68 18 00 00 00       	push   0x18
    41b9:	e9 62 fe ff ff       	jmp    4020 <_init+0x20>
    41be:	66 90                	xchg   ax,ax
    41c0:	f3 0f 1e fa          	endbr64
    41c4:	68 19 00 00 00       	push   0x19
    41c9:	e9 52 fe ff ff       	jmp    4020 <_init+0x20>
    41ce:	66 90                	xchg   ax,ax
    41d0:	f3 0f 1e fa          	endbr64
    41d4:	68 1a 00 00 00       	push   0x1a
    41d9:	e9 42 fe ff ff       	jmp    4020 <_init+0x20>
    41de:	66 90                	xchg   ax,ax
    41e0:	f3 0f 1e fa          	endbr64
    41e4:	68 1b 00 00 00       	push   0x1b
    41e9:	e9 32 fe ff ff       	jmp    4020 <_init+0x20>
    41ee:	66 90                	xchg   ax,ax
    41f0:	f3 0f 1e fa          	endbr64
    41f4:	68 1c 00 00 00       	push   0x1c
    41f9:	e9 22 fe ff ff       	jmp    4020 <_init+0x20>
    41fe:	66 90                	xchg   ax,ax
    4200:	f3 0f 1e fa          	endbr64
    4204:	68 1d 00 00 00       	push   0x1d
    4209:	e9 12 fe ff ff       	jmp    4020 <_init+0x20>
    420e:	66 90                	xchg   ax,ax
    4210:	f3 0f 1e fa          	endbr64
    4214:	68 1e 00 00 00       	push   0x1e
    4219:	e9 02 fe ff ff       	jmp    4020 <_init+0x20>
    421e:	66 90                	xchg   ax,ax
    4220:	f3 0f 1e fa          	endbr64
    4224:	68 1f 00 00 00       	push   0x1f
    4229:	e9 f2 fd ff ff       	jmp    4020 <_init+0x20>
    422e:	66 90                	xchg   ax,ax
    4230:	f3 0f 1e fa          	endbr64
    4234:	68 20 00 00 00       	push   0x20
    4239:	e9 e2 fd ff ff       	jmp    4020 <_init+0x20>
    423e:	66 90                	xchg   ax,ax
    4240:	f3 0f 1e fa          	endbr64
    4244:	68 21 00 00 00       	push   0x21
    4249:	e9 d2 fd ff ff       	jmp    4020 <_init+0x20>
    424e:	66 90                	xchg   ax,ax
    4250:	f3 0f 1e fa          	endbr64
    4254:	68 22 00 00 00       	push   0x22
    4259:	e9 c2 fd ff ff       	jmp    4020 <_init+0x20>
    425e:	66 90                	xchg   ax,ax
    4260:	f3 0f 1e fa          	endbr64
    4264:	68 23 00 00 00       	push   0x23
    4269:	e9 b2 fd ff ff       	jmp    4020 <_init+0x20>
    426e:	66 90                	xchg   ax,ax
    4270:	f3 0f 1e fa          	endbr64
    4274:	68 24 00 00 00       	push   0x24
    4279:	e9 a2 fd ff ff       	jmp    4020 <_init+0x20>
    427e:	66 90                	xchg   ax,ax
    4280:	f3 0f 1e fa          	endbr64
    4284:	68 25 00 00 00       	push   0x25
    4289:	e9 92 fd ff ff       	jmp    4020 <_init+0x20>
    428e:	66 90                	xchg   ax,ax
    4290:	f3 0f 1e fa          	endbr64
    4294:	68 26 00 00 00       	push   0x26
    4299:	e9 82 fd ff ff       	jmp    4020 <_init+0x20>
    429e:	66 90                	xchg   ax,ax
    42a0:	f3 0f 1e fa          	endbr64
    42a4:	68 27 00 00 00       	push   0x27
    42a9:	e9 72 fd ff ff       	jmp    4020 <_init+0x20>
    42ae:	66 90                	xchg   ax,ax
    42b0:	f3 0f 1e fa          	endbr64
    42b4:	68 28 00 00 00       	push   0x28
    42b9:	e9 62 fd ff ff       	jmp    4020 <_init+0x20>
    42be:	66 90                	xchg   ax,ax
    42c0:	f3 0f 1e fa          	endbr64
    42c4:	68 29 00 00 00       	push   0x29
    42c9:	e9 52 fd ff ff       	jmp    4020 <_init+0x20>
    42ce:	66 90                	xchg   ax,ax
    42d0:	f3 0f 1e fa          	endbr64
    42d4:	68 2a 00 00 00       	push   0x2a
    42d9:	e9 42 fd ff ff       	jmp    4020 <_init+0x20>
    42de:	66 90                	xchg   ax,ax
    42e0:	f3 0f 1e fa          	endbr64
    42e4:	68 2b 00 00 00       	push   0x2b
    42e9:	e9 32 fd ff ff       	jmp    4020 <_init+0x20>
    42ee:	66 90                	xchg   ax,ax
    42f0:	f3 0f 1e fa          	endbr64
    42f4:	68 2c 00 00 00       	push   0x2c
    42f9:	e9 22 fd ff ff       	jmp    4020 <_init+0x20>
    42fe:	66 90                	xchg   ax,ax
    4300:	f3 0f 1e fa          	endbr64
    4304:	68 2d 00 00 00       	push   0x2d
    4309:	e9 12 fd ff ff       	jmp    4020 <_init+0x20>
    430e:	66 90                	xchg   ax,ax
    4310:	f3 0f 1e fa          	endbr64
    4314:	68 2e 00 00 00       	push   0x2e
    4319:	e9 02 fd ff ff       	jmp    4020 <_init+0x20>
    431e:	66 90                	xchg   ax,ax
    4320:	f3 0f 1e fa          	endbr64
    4324:	68 2f 00 00 00       	push   0x2f
    4329:	e9 f2 fc ff ff       	jmp    4020 <_init+0x20>
    432e:	66 90                	xchg   ax,ax
    4330:	f3 0f 1e fa          	endbr64
    4334:	68 30 00 00 00       	push   0x30
    4339:	e9 e2 fc ff ff       	jmp    4020 <_init+0x20>
    433e:	66 90                	xchg   ax,ax
    4340:	f3 0f 1e fa          	endbr64
    4344:	68 31 00 00 00       	push   0x31
    4349:	e9 d2 fc ff ff       	jmp    4020 <_init+0x20>
    434e:	66 90                	xchg   ax,ax
    4350:	f3 0f 1e fa          	endbr64
    4354:	68 32 00 00 00       	push   0x32
    4359:	e9 c2 fc ff ff       	jmp    4020 <_init+0x20>
    435e:	66 90                	xchg   ax,ax
    4360:	f3 0f 1e fa          	endbr64
    4364:	68 33 00 00 00       	push   0x33
    4369:	e9 b2 fc ff ff       	jmp    4020 <_init+0x20>
    436e:	66 90                	xchg   ax,ax
    4370:	f3 0f 1e fa          	endbr64
    4374:	68 34 00 00 00       	push   0x34
    4379:	e9 a2 fc ff ff       	jmp    4020 <_init+0x20>
    437e:	66 90                	xchg   ax,ax
    4380:	f3 0f 1e fa          	endbr64
    4384:	68 35 00 00 00       	push   0x35
    4389:	e9 92 fc ff ff       	jmp    4020 <_init+0x20>
    438e:	66 90                	xchg   ax,ax
    4390:	f3 0f 1e fa          	endbr64
    4394:	68 36 00 00 00       	push   0x36
    4399:	e9 82 fc ff ff       	jmp    4020 <_init+0x20>
    439e:	66 90                	xchg   ax,ax
    43a0:	f3 0f 1e fa          	endbr64
    43a4:	68 37 00 00 00       	push   0x37
    43a9:	e9 72 fc ff ff       	jmp    4020 <_init+0x20>
    43ae:	66 90                	xchg   ax,ax
    43b0:	f3 0f 1e fa          	endbr64
    43b4:	68 38 00 00 00       	push   0x38
    43b9:	e9 62 fc ff ff       	jmp    4020 <_init+0x20>
    43be:	66 90                	xchg   ax,ax
    43c0:	f3 0f 1e fa          	endbr64
    43c4:	68 39 00 00 00       	push   0x39
    43c9:	e9 52 fc ff ff       	jmp    4020 <_init+0x20>
    43ce:	66 90                	xchg   ax,ax
    43d0:	f3 0f 1e fa          	endbr64
    43d4:	68 3a 00 00 00       	push   0x3a
    43d9:	e9 42 fc ff ff       	jmp    4020 <_init+0x20>
    43de:	66 90                	xchg   ax,ax
    43e0:	f3 0f 1e fa          	endbr64
    43e4:	68 3b 00 00 00       	push   0x3b
    43e9:	e9 32 fc ff ff       	jmp    4020 <_init+0x20>
    43ee:	66 90                	xchg   ax,ax
    43f0:	f3 0f 1e fa          	endbr64
    43f4:	68 3c 00 00 00       	push   0x3c
    43f9:	e9 22 fc ff ff       	jmp    4020 <_init+0x20>
    43fe:	66 90                	xchg   ax,ax
    4400:	f3 0f 1e fa          	endbr64
    4404:	68 3d 00 00 00       	push   0x3d
    4409:	e9 12 fc ff ff       	jmp    4020 <_init+0x20>
    440e:	66 90                	xchg   ax,ax

Disassembly of section .plt.got:

0000000000004410 <__register_frame_info@plt>:
    4410:	f3 0f 1e fa          	endbr64
    4414:	ff 25 8e 2b 01 00    	jmp    QWORD PTR [rip+0x12b8e]        # 16fa8 <__register_frame_info@Base>
    441a:	66 0f 1f 44 00 00    	nop    WORD PTR [rax+rax*1+0x0]

0000000000004420 <__cxa_finalize@plt>:
    4420:	f3 0f 1e fa          	endbr64
    4424:	ff 25 86 2b 01 00    	jmp    QWORD PTR [rip+0x12b86]        # 16fb0 <__cxa_finalize@GLIBC_2.2.5>
    442a:	66 0f 1f 44 00 00    	nop    WORD PTR [rax+rax*1+0x0]

0000000000004430 <__deregister_frame_info@plt>:
    4430:	f3 0f 1e fa          	endbr64
    4434:	ff 25 8e 2b 01 00    	jmp    QWORD PTR [rip+0x12b8e]        # 16fc8 <__deregister_frame_info@Base>
    443a:	66 0f 1f 44 00 00    	nop    WORD PTR [rax+rax*1+0x0]

Disassembly of section .plt.sec:

0000000000004440 <_Znam@plt>:
    4440:	f3 0f 1e fa          	endbr64
    4444:	ff 25 5e 29 01 00    	jmp    QWORD PTR [rip+0x1295e]        # 16da8 <_Znam@GLIBCXX_3.4>
    444a:	66 0f 1f 44 00 00    	nop    WORD PTR [rax+rax*1+0x0]

0000000000004450 <__errno_location@plt>:
    4450:	f3 0f 1e fa          	endbr64
    4454:	ff 25 56 29 01 00    	jmp    QWORD PTR [rip+0x12956]        # 16db0 <__errno_location@GLIBC_2.2.5>
    445a:	66 0f 1f 44 00 00    	nop    WORD PTR [rax+rax*1+0x0]

0000000000004460 <printf@plt>:
    4460:	f3 0f 1e fa          	endbr64
    4464:	ff 25 4e 29 01 00    	jmp    QWORD PTR [rip+0x1294e]        # 16db8 <printf@GLIBC_2.2.5>
    446a:	66 0f 1f 44 00 00    	nop    WORD PTR [rax+rax*1+0x0]

0000000000004470 <_ZSt11_Hash_bytesPKvmm@plt>:
    4470:	f3 0f 1e fa          	endbr64
    4474:	ff 25 46 29 01 00    	jmp    QWORD PTR [rip+0x12946]        # 16dc0 <_ZSt11_Hash_bytesPKvmm@CXXABI_1.3.5>
    447a:	66 0f 1f 44 00 00    	nop    WORD PTR [rax+rax*1+0x0]

0000000000004480 <_Unwind_Resume@plt>:
    4480:	f3 0f 1e fa          	endbr64
    4484:	ff 25 3e 29 01 00    	jmp    QWORD PTR [rip+0x1293e]        # 16dc8 <_Unwind_Resume@Base>
    448a:	66 0f 1f 44 00 00    	nop    WORD PTR [rax+rax*1+0x0]

0000000000004490 <_ZSt9terminatev@plt>:
    4490:	f3 0f 1e fa          	endbr64
    4494:	ff 25 36 29 01 00    	jmp    QWORD PTR [rip+0x12936]        # 16dd0 <_ZSt9terminatev@GLIBCXX_3.4>
    449a:	66 0f 1f 44 00 00    	nop    WORD PTR [rax+rax*1+0x0]

00000000000044a0 <realpath@plt>:
    44a0:	f3 0f 1e fa          	endbr64
    44a4:	ff 25 2e 29 01 00    	jmp    QWORD PTR [rip+0x1292e]        # 16dd8 <realpath@GLIBC_2.3>
    44aa:	66 0f 1f 44 00 00    	nop    WORD PTR [rax+rax*1+0x0]

00000000000044b0 <_ZSt17__throw_bad_allocv@plt>:
    44b0:	f3 0f 1e fa          	endbr64
    44b4:	ff 25 26 29 01 00    	jmp    QWORD PTR [rip+0x12926]        # 16de0 <_ZSt17__throw_bad_allocv@GLIBCXX_3.4>
    44ba:	66 0f 1f 44 00 00    	nop    WORD PTR [rax+rax*1+0x0]

00000000000044c0 <__cxa_begin_catch@plt>:
    44c0:	f3 0f 1e fa          	endbr64
    44c4:	ff 25 1e 29 01 00    	jmp    QWORD PTR [rip+0x1291e]        # 16de8 <__cxa_begin_catch@CXXABI_1.3>
    44ca:	66 0f 1f 44 00 00    	nop    WORD PTR [rax+rax*1+0x0]

00000000000044d0 <strlen@plt>:
    44d0:	f3 0f 1e fa          	endbr64
    44d4:	ff 25 16 29 01 00    	jmp    QWORD PTR [rip+0x12916]        # 16df0 <strlen@GLIBC_2.2.5>
    44da:	66 0f 1f 44 00 00    	nop    WORD PTR [rax+rax*1+0x0]

00000000000044e0 <memcmp@plt>:
    44e0:	f3 0f 1e fa          	endbr64
    44e4:	ff 25 0e 29 01 00    	jmp    QWORD PTR [rip+0x1290e]        # 16df8 <memcmp@GLIBC_2.2.5>
    44ea:	66 0f 1f 44 00 00    	nop    WORD PTR [rax+rax*1+0x0]

00000000000044f0 <__cxa_allocate_exception@plt>:
    44f0:	f3 0f 1e fa          	endbr64
    44f4:	ff 25 06 29 01 00    	jmp    QWORD PTR [rip+0x12906]        # 16e00 <__cxa_allocate_exception@CXXABI_1.3>
    44fa:	66 0f 1f 44 00 00    	nop    WORD PTR [rax+rax*1+0x0]

0000000000004500 <getcwd@plt>:
    4500:	f3 0f 1e fa          	endbr64
    4504:	ff 25 fe 28 01 00    	jmp    QWORD PTR [rip+0x128fe]        # 16e08 <getcwd@GLIBC_2.2.5>
    450a:	66 0f 1f 44 00 00    	nop    WORD PTR [rax+rax*1+0x0]

0000000000004510 <_ZSt20__throw_length_errorPKc@plt>:
    4510:	f3 0f 1e fa          	endbr64
    4514:	ff 25 f6 28 01 00    	jmp    QWORD PTR [rip+0x128f6]        # 16e10 <_ZSt20__throw_length_errorPKc@GLIBCXX_3.4>
    451a:	66 0f 1f 44 00 00    	nop    WORD PTR [rax+rax*1+0x0]

0000000000004520 <memset@plt>:
    4520:	f3 0f 1e fa          	endbr64
    4524:	ff 25 ee 28 01 00    	jmp    QWORD PTR [rip+0x128ee]        # 16e18 <memset@GLIBC_2.2.5>
    452a:	66 0f 1f 44 00 00    	nop    WORD PTR [rax+rax*1+0x0]

0000000000004530 <_ZSt19__throw_logic_errorPKc@plt>:
    4530:	f3 0f 1e fa          	endbr64
    4534:	ff 25 e6 28 01 00    	jmp    QWORD PTR [rip+0x128e6]        # 16e20 <_ZSt19__throw_logic_errorPKc@GLIBCXX_3.4>
    453a:	66 0f 1f 44 00 00    	nop    WORD PTR [rax+rax*1+0x0]

0000000000004540 <__cxa_free_exception@plt>:
    4540:	f3 0f 1e fa          	endbr64
    4544:	ff 25 de 28 01 00    	jmp    QWORD PTR [rip+0x128de]        # 16e28 <__cxa_free_exception@CXXABI_1.3>
    454a:	66 0f 1f 44 00 00    	nop    WORD PTR [rax+rax*1+0x0]

0000000000004550 <_ZSt28__throw_bad_array_new_lengthv@plt>:
    4550:	f3 0f 1e fa          	endbr64
    4554:	ff 25 d6 28 01 00    	jmp    QWORD PTR [rip+0x128d6]        # 16e30 <_ZSt28__throw_bad_array_new_lengthv@GLIBCXX_3.4.29>
    455a:	66 0f 1f 44 00 00    	nop    WORD PTR [rax+rax*1+0x0]

0000000000004560 <memcpy@plt>:
    4560:	f3 0f 1e fa          	endbr64
    4564:	ff 25 ce 28 01 00    	jmp    QWORD PTR [rip+0x128ce]        # 16e38 <memcpy@GLIBC_2.14>
    456a:	66 0f 1f 44 00 00    	nop    WORD PTR [rax+rax*1+0x0]

0000000000004570 <stat@plt>:
    4570:	f3 0f 1e fa          	endbr64
    4574:	ff 25 c6 28 01 00    	jmp    QWORD PTR [rip+0x128c6]        # 16e40 <stat@GLIBC_2.33>
    457a:	66 0f 1f 44 00 00    	nop    WORD PTR [rax+rax*1+0x0]

0000000000004580 <fclose@plt>:
    4580:	f3 0f 1e fa          	endbr64
    4584:	ff 25 be 28 01 00    	jmp    QWORD PTR [rip+0x128be]        # 16e48 <fclose@GLIBC_2.2.5>
    458a:	66 0f 1f 44 00 00    	nop    WORD PTR [rax+rax*1+0x0]

0000000000004590 <_Znwm@plt>:
    4590:	f3 0f 1e fa          	endbr64
    4594:	ff 25 b6 28 01 00    	jmp    QWORD PTR [rip+0x128b6]        # 16e50 <_Znwm@GLIBCXX_3.4>
    459a:	66 0f 1f 44 00 00    	nop    WORD PTR [rax+rax*1+0x0]

00000000000045a0 <_ZdlPvm@plt>:
    45a0:	f3 0f 1e fa          	endbr64
    45a4:	ff 25 ae 28 01 00    	jmp    QWORD PTR [rip+0x128ae]        # 16e58 <_ZdlPvm@CXXABI_1.3.9>
    45aa:	66 0f 1f 44 00 00    	nop    WORD PTR [rax+rax*1+0x0]

00000000000045b0 <fileno@plt>:
    45b0:	f3 0f 1e fa          	endbr64
    45b4:	ff 25 a6 28 01 00    	jmp    QWORD PTR [rip+0x128a6]        # 16e60 <fileno@GLIBC_2.2.5>
    45ba:	66 0f 1f 44 00 00    	nop    WORD PTR [rax+rax*1+0x0]

00000000000045c0 <freopen@plt>:
    45c0:	f3 0f 1e fa          	endbr64
    45c4:	ff 25 9e 28 01 00    	jmp    QWORD PTR [rip+0x1289e]        # 16e68 <freopen@GLIBC_2.2.5>
    45ca:	66 0f 1f 44 00 00    	nop    WORD PTR [rax+rax*1+0x0]

00000000000045d0 <__stack_chk_fail@plt>:
    45d0:	f3 0f 1e fa          	endbr64
    45d4:	ff 25 96 28 01 00    	jmp    QWORD PTR [rip+0x12896]        # 16e70 <__stack_chk_fail@GLIBC_2.4>
    45da:	66 0f 1f 44 00 00    	nop    WORD PTR [rax+rax*1+0x0]

00000000000045e0 <tcgetattr@plt>:
    45e0:	f3 0f 1e fa          	endbr64
    45e4:	ff 25 8e 28 01 00    	jmp    QWORD PTR [rip+0x1288e]        # 16e78 <tcgetattr@GLIBC_2.2.5>
    45ea:	66 0f 1f 44 00 00    	nop    WORD PTR [rax+rax*1+0x0]

00000000000045f0 <fputs@plt>:
    45f0:	f3 0f 1e fa          	endbr64
    45f4:	ff 25 86 28 01 00    	jmp    QWORD PTR [rip+0x12886]        # 16e80 <fputs@GLIBC_2.2.5>
    45fa:	66 0f 1f 44 00 00    	nop    WORD PTR [rax+rax*1+0x0]

0000000000004600 <fflush@plt>:
    4600:	f3 0f 1e fa          	endbr64
    4604:	ff 25 7e 28 01 00    	jmp    QWORD PTR [rip+0x1287e]        # 16e88 <fflush@GLIBC_2.2.5>
    460a:	66 0f 1f 44 00 00    	nop    WORD PTR [rax+rax*1+0x0]

0000000000004610 <fopen@plt>:
    4610:	f3 0f 1e fa          	endbr64
    4614:	ff 25 76 28 01 00    	jmp    QWORD PTR [rip+0x12876]        # 16e90 <fopen@GLIBC_2.2.5>
    461a:	66 0f 1f 44 00 00    	nop    WORD PTR [rax+rax*1+0x0]

0000000000004620 <free@plt>:
    4620:	f3 0f 1e fa          	endbr64
    4624:	ff 25 6e 28 01 00    	jmp    QWORD PTR [rip+0x1286e]        # 16e98 <free@GLIBC_2.2.5>
    462a:	66 0f 1f 44 00 00    	nop    WORD PTR [rax+rax*1+0x0]

0000000000004630 <exit@plt>:
    4630:	f3 0f 1e fa          	endbr64
    4634:	ff 25 66 28 01 00    	jmp    QWORD PTR [rip+0x12866]        # 16ea0 <exit@GLIBC_2.2.5>
    463a:	66 0f 1f 44 00 00    	nop    WORD PTR [rax+rax*1+0x0]

0000000000004640 <getenv@plt>:
    4640:	f3 0f 1e fa          	endbr64
    4644:	ff 25 5e 28 01 00    	jmp    QWORD PTR [rip+0x1285e]        # 16ea8 <getenv@GLIBC_2.2.5>
    464a:	66 0f 1f 44 00 00    	nop    WORD PTR [rax+rax*1+0x0]

0000000000004650 <wait@plt>:
    4650:	f3 0f 1e fa          	endbr64
    4654:	ff 25 56 28 01 00    	jmp    QWORD PTR [rip+0x12856]        # 16eb0 <wait@GLIBC_2.2.5>
    465a:	66 0f 1f 44 00 00    	nop    WORD PTR [rax+rax*1+0x0]

0000000000004660 <tcsetattr@plt>:
    4660:	f3 0f 1e fa          	endbr64
    4664:	ff 25 4e 28 01 00    	jmp    QWORD PTR [rip+0x1284e]        # 16eb8 <tcsetattr@GLIBC_2.2.5>
    466a:	66 0f 1f 44 00 00    	nop    WORD PTR [rax+rax*1+0x0]

0000000000004670 <_ZdaPv@plt>:
    4670:	f3 0f 1e fa          	endbr64
    4674:	ff 25 46 28 01 00    	jmp    QWORD PTR [rip+0x12846]        # 16ec0 <_ZdaPv@GLIBCXX_3.4>
    467a:	66 0f 1f 44 00 00    	nop    WORD PTR [rax+rax*1+0x0]

0000000000004680 <_ZNKSt8__detail20_Prime_rehash_policy14_M_need_rehashEmmm@plt>:
    4680:	f3 0f 1e fa          	endbr64
    4684:	ff 25 3e 28 01 00    	jmp    QWORD PTR [rip+0x1283e]        # 16ec8 <_ZNKSt8__detail20_Prime_rehash_policy14_M_need_rehashEmmm@GLIBCXX_3.4.18>
    468a:	66 0f 1f 44 00 00    	nop    WORD PTR [rax+rax*1+0x0]

0000000000004690 <vfprintf@plt>:
    4690:	f3 0f 1e fa          	endbr64
    4694:	ff 25 36 28 01 00    	jmp    QWORD PTR [rip+0x12836]        # 16ed0 <vfprintf@GLIBC_2.2.5>
    469a:	66 0f 1f 44 00 00    	nop    WORD PTR [rax+rax*1+0x0]

00000000000046a0 <vfork@plt>:
    46a0:	f3 0f 1e fa          	endbr64
    46a4:	ff 25 2e 28 01 00    	jmp    QWORD PTR [rip+0x1282e]        # 16ed8 <vfork@GLIBC_2.2.5>
    46aa:	66 0f 1f 44 00 00    	nop    WORD PTR [rax+rax*1+0x0]

00000000000046b0 <_ZNSt7__cxx1112basic_stringIcSt11char_traitsIcESaIcEE15_M_replace_coldEPcmPKcmm@plt>:
    46b0:	f3 0f 1e fa          	endbr64
    46b4:	ff 25 26 28 01 00    	jmp    QWORD PTR [rip+0x12826]        # 16ee0 <_ZNSt7__cxx1112basic_stringIcSt11char_traitsIcESaIcEE15_M_replace_coldEPcmPKcmm@GLIBCXX_3.4.31>
    46ba:	66 0f 1f 44 00 00    	nop    WORD PTR [rax+rax*1+0x0]

00000000000046c0 <strcmp@plt>:
    46c0:	f3 0f 1e fa          	endbr64
    46c4:	ff 25 1e 28 01 00    	jmp    QWORD PTR [rip+0x1281e]        # 16ee8 <strcmp@GLIBC_2.2.5>
    46ca:	66 0f 1f 44 00 00    	nop    WORD PTR [rax+rax*1+0x0]

00000000000046d0 <fprintf@plt>:
    46d0:	f3 0f 1e fa          	endbr64
    46d4:	ff 25 16 28 01 00    	jmp    QWORD PTR [rip+0x12816]        # 16ef0 <fprintf@GLIBC_2.2.5>
    46da:	66 0f 1f 44 00 00    	nop    WORD PTR [rax+rax*1+0x0]

00000000000046e0 <read@plt>:
    46e0:	f3 0f 1e fa          	endbr64
    46e4:	ff 25 0e 28 01 00    	jmp    QWORD PTR [rip+0x1280e]        # 16ef8 <read@GLIBC_2.2.5>
    46ea:	66 0f 1f 44 00 00    	nop    WORD PTR [rax+rax*1+0x0]

00000000000046f0 <_ZSt20__throw_out_of_rangePKc@plt>:
    46f0:	f3 0f 1e fa          	endbr64
    46f4:	ff 25 06 28 01 00    	jmp    QWORD PTR [rip+0x12806]        # 16f00 <_ZSt20__throw_out_of_rangePKc@GLIBCXX_3.4>
    46fa:	66 0f 1f 44 00 00    	nop    WORD PTR [rax+rax*1+0x0]

0000000000004700 <__cxa_rethrow@plt>:
    4700:	f3 0f 1e fa          	endbr64
    4704:	ff 25 fe 27 01 00    	jmp    QWORD PTR [rip+0x127fe]        # 16f08 <__cxa_rethrow@CXXABI_1.3>
    470a:	66 0f 1f 44 00 00    	nop    WORD PTR [rax+rax*1+0x0]

0000000000004710 <chdir@plt>:
    4710:	f3 0f 1e fa          	endbr64
    4714:	ff 25 f6 27 01 00    	jmp    QWORD PTR [rip+0x127f6]        # 16f10 <chdir@GLIBC_2.2.5>
    471a:	66 0f 1f 44 00 00    	nop    WORD PTR [rax+rax*1+0x0]

0000000000004720 <iscntrl@plt>:
    4720:	f3 0f 1e fa          	endbr64
    4724:	ff 25 ee 27 01 00    	jmp    QWORD PTR [rip+0x127ee]        # 16f18 <iscntrl@GLIBC_2.2.5>
    472a:	66 0f 1f 44 00 00    	nop    WORD PTR [rax+rax*1+0x0]

0000000000004730 <fread@plt>:
    4730:	f3 0f 1e fa          	endbr64
    4734:	ff 25 e6 27 01 00    	jmp    QWORD PTR [rip+0x127e6]        # 16f20 <fread@GLIBC_2.2.5>
    473a:	66 0f 1f 44 00 00    	nop    WORD PTR [rax+rax*1+0x0]

0000000000004740 <opendir@plt>:
    4740:	f3 0f 1e fa          	endbr64
    4744:	ff 25 de 27 01 00    	jmp    QWORD PTR [rip+0x127de]        # 16f28 <opendir@GLIBC_2.2.5>
    474a:	66 0f 1f 44 00 00    	nop    WORD PTR [rax+rax*1+0x0]

0000000000004750 <setenv@plt>:
    4750:	f3 0f 1e fa          	endbr64
    4754:	ff 25 d6 27 01 00    	jmp    QWORD PTR [rip+0x127d6]        # 16f30 <setenv@GLIBC_2.2.5>
    475a:	66 0f 1f 44 00 00    	nop    WORD PTR [rax+rax*1+0x0]

0000000000004760 <_ZSt24__throw_out_of_range_fmtPKcz@plt>:
    4760:	f3 0f 1e fa          	endbr64
    4764:	ff 25 ce 27 01 00    	jmp    QWORD PTR [rip+0x127ce]        # 16f38 <_ZSt24__throw_out_of_range_fmtPKcz@GLIBCXX_3.4.20>
    476a:	66 0f 1f 44 00 00    	nop    WORD PTR [rax+rax*1+0x0]

0000000000004770 <_ZNSt12out_of_rangeC1ERKNSt7__cxx1112basic_stringIcSt11char_traitsIcESaIcEEE@plt>:
    4770:	f3 0f 1e fa          	endbr64
    4774:	ff 25 c6 27 01 00    	jmp    QWORD PTR [rip+0x127c6]        # 16f40 <_ZNSt12out_of_rangeC1ERKNSt7__cxx1112basic_stringIcSt11char_traitsIcESaIcEEE@GLIBCXX_3.4.21>
    477a:	66 0f 1f 44 00 00    	nop    WORD PTR [rax+rax*1+0x0]

0000000000004780 <readdir@plt>:
    4780:	f3 0f 1e fa          	endbr64
    4784:	ff 25 be 27 01 00    	jmp    QWORD PTR [rip+0x127be]        # 16f48 <readdir@GLIBC_2.2.5>
    478a:	66 0f 1f 44 00 00    	nop    WORD PTR [rax+rax*1+0x0]

0000000000004790 <snprintf@plt>:
    4790:	f3 0f 1e fa          	endbr64
    4794:	ff 25 b6 27 01 00    	jmp    QWORD PTR [rip+0x127b6]        # 16f50 <snprintf@GLIBC_2.2.5>
    479a:	66 0f 1f 44 00 00    	nop    WORD PTR [rax+rax*1+0x0]

00000000000047a0 <closedir@plt>:
    47a0:	f3 0f 1e fa          	endbr64
    47a4:	ff 25 ae 27 01 00    	jmp    QWORD PTR [rip+0x127ae]        # 16f58 <closedir@GLIBC_2.2.5>
    47aa:	66 0f 1f 44 00 00    	nop    WORD PTR [rax+rax*1+0x0]

00000000000047b0 <memmove@plt>:
    47b0:	f3 0f 1e fa          	endbr64
    47b4:	ff 25 a6 27 01 00    	jmp    QWORD PTR [rip+0x127a6]        # 16f60 <memmove@GLIBC_2.2.5>
    47ba:	66 0f 1f 44 00 00    	nop    WORD PTR [rax+rax*1+0x0]

00000000000047c0 <_exit@plt>:
    47c0:	f3 0f 1e fa          	endbr64
    47c4:	ff 25 9e 27 01 00    	jmp    QWORD PTR [rip+0x1279e]        # 16f68 <_exit@GLIBC_2.2.5>
    47ca:	66 0f 1f 44 00 00    	nop    WORD PTR [rax+rax*1+0x0]

00000000000047d0 <__cxa_end_catch@plt>:
    47d0:	f3 0f 1e fa          	endbr64
    47d4:	ff 25 96 27 01 00    	jmp    QWORD PTR [rip+0x12796]        # 16f70 <__cxa_end_catch@CXXABI_1.3>
    47da:	66 0f 1f 44 00 00    	nop    WORD PTR [rax+rax*1+0x0]

00000000000047e0 <access@plt>:
    47e0:	f3 0f 1e fa          	endbr64
    47e4:	ff 25 8e 27 01 00    	jmp    QWORD PTR [rip+0x1278e]        # 16f78 <access@GLIBC_2.2.5>
    47ea:	66 0f 1f 44 00 00    	nop    WORD PTR [rax+rax*1+0x0]

00000000000047f0 <execve@plt>:
    47f0:	f3 0f 1e fa          	endbr64
    47f4:	ff 25 86 27 01 00    	jmp    QWORD PTR [rip+0x12786]        # 16f80 <execve@GLIBC_2.2.5>
    47fa:	66 0f 1f 44 00 00    	nop    WORD PTR [rax+rax*1+0x0]

0000000000004800 <__cxa_throw@plt>:
    4800:	f3 0f 1e fa          	endbr64
    4804:	ff 25 7e 27 01 00    	jmp    QWORD PTR [rip+0x1277e]        # 16f88 <__cxa_throw@CXXABI_1.3>
    480a:	66 0f 1f 44 00 00    	nop    WORD PTR [rax+rax*1+0x0]

0000000000004810 <_ZNSt16invalid_argumentC1ERKNSt7__cxx1112basic_stringIcSt11char_traitsIcESaIcEEE@plt>:
    4810:	f3 0f 1e fa          	endbr64
    4814:	ff 25 76 27 01 00    	jmp    QWORD PTR [rip+0x12776]        # 16f90 <_ZNSt16invalid_argumentC1ERKNSt7__cxx1112basic_stringIcSt11char_traitsIcESaIcEEE@GLIBCXX_3.4.21>
    481a:	66 0f 1f 44 00 00    	nop    WORD PTR [rax+rax*1+0x0]

Disassembly of section .text:

0000000000004820 <_start>:
    4820:	f3 0f 1e fa          	endbr64
    4824:	31 ed                	xor    ebp,ebp
    4826:	49 89 d1             	mov    r9,rdx
    4829:	5e                   	pop    rsi
    482a:	48 89 e2             	mov    rdx,rsp
    482d:	48 83 e4 f0          	and    rsp,0xfffffffffffffff0
    4831:	50                   	push   rax
    4832:	54                   	push   rsp
    4833:	45 31 c0             	xor    r8d,r8d
    4836:	31 c9                	xor    ecx,ecx
    4838:	48 8d 3d 11 60 00 00 	lea    rdi,[rip+0x6011]        # a850 <main>
    483f:	ff 15 73 27 01 00    	call   QWORD PTR [rip+0x12773]        # 16fb8 <__libc_start_main@GLIBC_2.34>
    4845:	f4                   	hlt
    4846:	66 2e 0f 1f 84 00 00 	cs nop WORD PTR [rax+rax*1+0x0]
    484d:	00 00 00 
    4850:	f3 0f 1e fa          	endbr64
    4854:	80 3d bd 27 01 00 00 	cmp    BYTE PTR [rip+0x127bd],0x0        # 17018 <__bss_start>
    485b:	75 24                	jne    4881 <_start+0x61>
    485d:	48 83 3d 43 27 01 00 	cmp    QWORD PTR [rip+0x12743],0x0        # 16fa8 <__register_frame_info@Base>
    4864:	00 
    4865:	c6 05 ac 27 01 00 01 	mov    BYTE PTR [rip+0x127ac],0x1        # 17018 <__bss_start>
    486c:	74 13                	je     4881 <_start+0x61>
    486e:	48 8d 3d 23 f7 00 00 	lea    rdi,[rip+0xf723]        # 13f98 <GCC_except_table264+0x19c4>
    4875:	48 8d 35 a4 27 01 00 	lea    rsi,[rip+0x127a4]        # 17020 <__bss_start+0x8>
    487c:	e9 8f fb ff ff       	jmp    4410 <__register_frame_info@plt>
    4881:	c3                   	ret
    4882:	66 66 66 66 66 2e 0f 	data16 data16 data16 data16 cs nop WORD PTR [rax+rax*1+0x0]
    4889:	1f 84 00 00 00 00 00 
    4890:	f3 0f 1e fa          	endbr64
    4894:	80 3d c5 27 01 00 00 	cmp    BYTE PTR [rip+0x127c5],0x0        # 17060 <__bss_start+0x48>
    489b:	75 39                	jne    48d6 <_start+0xb6>
    489d:	50                   	push   rax
    489e:	48 83 3d 0a 27 01 00 	cmp    QWORD PTR [rip+0x1270a],0x0        # 16fb0 <__cxa_finalize@GLIBC_2.2.5>
    48a5:	00 
    48a6:	c6 05 b3 27 01 00 01 	mov    BYTE PTR [rip+0x127b3],0x1        # 17060 <__bss_start+0x48>
    48ad:	74 0c                	je     48bb <_start+0x9b>
    48af:	48 8b 3d 52 27 01 00 	mov    rdi,QWORD PTR [rip+0x12752]        # 17008 <__dso_handle>
    48b6:	e8 65 fb ff ff       	call   4420 <__cxa_finalize@plt>
    48bb:	48 83 3d 05 27 01 00 	cmp    QWORD PTR [rip+0x12705],0x0        # 16fc8 <__deregister_frame_info@Base>
    48c2:	00 
    48c3:	48 8d 64 24 08       	lea    rsp,[rsp+0x8]
    48c8:	74 0c                	je     48d6 <_start+0xb6>
    48ca:	48 8d 3d c7 f6 00 00 	lea    rdi,[rip+0xf6c7]        # 13f98 <GCC_except_table264+0x19c4>
    48d1:	e9 5a fb ff ff       	jmp    4430 <__deregister_frame_info@plt>
    48d6:	c3                   	ret
    48d7:	66 0f 1f 84 00 00 00 	nop    WORD PTR [rax+rax*1+0x0]
    48de:	00 00 

00000000000048e0 <_Z7dir_cmdR10TerminalIORKNSt7__cxx1112basic_stringIcSt11char_traitsIcESaIcEEERKSt6vectorIS6_SaIS6_EE>:
    closedir(dir);
    return 0;
}

int dir_cmd(TerminalIO& terminal, const std::string& current_dir, const std::vector<std::string>& args)
{
    48e0:	f3 0f 1e fa          	endbr64
    48e4:	55                   	push   rbp
    48e5:	48 89 e5             	mov    rbp,rsp
    48e8:	48 83 ec 50          	sub    rsp,0x50
    48ec:	48 89 7d f0          	mov    QWORD PTR [rbp-0x10],rdi
    48f0:	48 89 75 e8          	mov    QWORD PTR [rbp-0x18],rsi
    48f4:	48 89 55 e0          	mov    QWORD PTR [rbp-0x20],rdx
    if(args.size() == 0)
    48f8:	48 8b 7d e0          	mov    rdi,QWORD PTR [rbp-0x20]
    48fc:	e8 7f 15 00 00       	call   5e80 <_ZNKSt6vectorINSt7__cxx1112basic_stringIcSt11char_traitsIcESaIcEEESaIS5_EE4sizeEv>
    4901:	48 83 f8 00          	cmp    rax,0x0
    4905:	75 1b                	jne    4922 <_Z7dir_cmdR10TerminalIORKNSt7__cxx1112basic_stringIcSt11char_traitsIcESaIcEEERKSt6vectorIS6_SaIS6_EE+0x42>
    {
        int ret = perform_dir_cmd(terminal, current_dir);
    4907:	48 8b 7d f0          	mov    rdi,QWORD PTR [rbp-0x10]
    490b:	48 8b 75 e8          	mov    rsi,QWORD PTR [rbp-0x18]
    490f:	e8 cc 00 00 00       	call   49e0 <_ZL15perform_dir_cmdR10TerminalIORKNSt7__cxx1112basic_stringIcSt11char_traitsIcESaIcEEE>
    4914:	89 45 dc             	mov    DWORD PTR [rbp-0x24],eax
        return ret;
    4917:	8b 45 dc             	mov    eax,DWORD PTR [rbp-0x24]
    491a:	89 45 fc             	mov    DWORD PTR [rbp-0x4],eax
    491d:	e9 a8 00 00 00       	jmp    49ca <_Z7dir_cmdR10TerminalIORKNSt7__cxx1112basic_stringIcSt11char_traitsIcESaIcEEERKSt6vectorIS6_SaIS6_EE+0xea>
    }
    else
    {
        int ret = 0;
    4922:	c7 45 d8 00 00 00 00 	mov    DWORD PTR [rbp-0x28],0x0
        for(size_t i = 0; i < args.size(); i++)
    4929:	48 c7 45 d0 00 00 00 	mov    QWORD PTR [rbp-0x30],0x0
    4930:	00 
    4931:	48 8b 45 d0          	mov    rax,QWORD PTR [rbp-0x30]
    4935:	48 89 45 c0          	mov    QWORD PTR [rbp-0x40],rax
    4939:	48 8b 7d e0          	mov    rdi,QWORD PTR [rbp-0x20]
    493d:	e8 3e 15 00 00       	call   5e80 <_ZNKSt6vectorINSt7__cxx1112basic_stringIcSt11char_traitsIcESaIcEEESaIS5_EE4sizeEv>
    4942:	48 89 c1             	mov    rcx,rax
    4945:	48 8b 45 c0          	mov    rax,QWORD PTR [rbp-0x40]
    4949:	48 39 c8             	cmp    rax,rcx
    494c:	73 76                	jae    49c4 <_Z7dir_cmdR10TerminalIORKNSt7__cxx1112basic_stringIcSt11char_traitsIcESaIcEEERKSt6vectorIS6_SaIS6_EE+0xe4>
        {
            terminal.print("%s:\r\n", args[i].c_str());
    494e:	48 8b 45 f0          	mov    rax,QWORD PTR [rbp-0x10]
    4952:	48 89 45 b0          	mov    QWORD PTR [rbp-0x50],rax
    4956:	48 8b 7d e0          	mov    rdi,QWORD PTR [rbp-0x20]
    495a:	48 8b 75 d0          	mov    rsi,QWORD PTR [rbp-0x30]
    495e:	e8 3d 15 00 00       	call   5ea0 <_ZNKSt6vectorINSt7__cxx1112basic_stringIcSt11char_traitsIcESaIcEEESaIS5_EEixEm>
    4963:	48 89 c7             	mov    rdi,rax
    4966:	e8 65 15 00 00       	call   5ed0 <_ZNKSt7__cxx1112basic_stringIcSt11char_traitsIcESaIcEE5c_strEv>
    496b:	48 8b 7d b0          	mov    rdi,QWORD PTR [rbp-0x50]
    496f:	48 89 c2             	mov    rdx,rax
    4972:	48 8d 35 8f c6 00 00 	lea    rsi,[rip+0xc68f]        # 11008 <_IO_stdin_used+0x8>
    4979:	b0 00                	mov    al,0x0
    497b:	e8 f0 48 00 00       	call   9270 <_ZN10TerminalIO5printEPKcz>
            int path_ret = perform_dir_cmd(terminal, args[i]);
    4980:	48 8b 45 f0          	mov    rax,QWORD PTR [rbp-0x10]
    4984:	48 89 45 b8          	mov    QWORD PTR [rbp-0x48],rax
    4988:	48 8b 7d e0          	mov    rdi,QWORD PTR [rbp-0x20]
    498c:	48 8b 75 d0          	mov    rsi,QWORD PTR [rbp-0x30]
    4990:	e8 0b 15 00 00       	call   5ea0 <_ZNKSt6vectorINSt7__cxx1112basic_stringIcSt11char_traitsIcESaIcEEESaIS5_EEixEm>
    4995:	48 8b 7d b8          	mov    rdi,QWORD PTR [rbp-0x48]
    4999:	48 89 c6             	mov    rsi,rax
    499c:	e8 3f 00 00 00       	call   49e0 <_ZL15perform_dir_cmdR10TerminalIORKNSt7__cxx1112basic_stringIcSt11char_traitsIcESaIcEEE>
    49a1:	89 45 cc             	mov    DWORD PTR [rbp-0x34],eax
            if(path_ret != 0)
    49a4:	83 7d cc 00          	cmp    DWORD PTR [rbp-0x34],0x0
    49a8:	74 07                	je     49b1 <_Z7dir_cmdR10TerminalIORKNSt7__cxx1112basic_stringIcSt11char_traitsIcESaIcEEERKSt6vectorIS6_SaIS6_EE+0xd1>
            {
                ret = -1;
    49aa:	c7 45 d8 ff ff ff ff 	mov    DWORD PTR [rbp-0x28],0xffffffff
            }
        }
    49b1:	eb 00                	jmp    49b3 <_Z7dir_cmdR10TerminalIORKNSt7__cxx1112basic_stringIcSt11char_traitsIcESaIcEEERKSt6vectorIS6_SaIS6_EE+0xd3>
        for(size_t i = 0; i < args.size(); i++)
    49b3:	48 8b 45 d0          	mov    rax,QWORD PTR [rbp-0x30]
    49b7:	48 83 c0 01          	add    rax,0x1
    49bb:	48 89 45 d0          	mov    QWORD PTR [rbp-0x30],rax
    49bf:	e9 6d ff ff ff       	jmp    4931 <_Z7dir_cmdR10TerminalIORKNSt7__cxx1112basic_stringIcSt11char_traitsIcESaIcEEERKSt6vectorIS6_SaIS6_EE+0x51>
        return ret; 
    49c4:	8b 45 d8             	mov    eax,DWORD PTR [rbp-0x28]
    49c7:	89 45 fc             	mov    DWORD PTR [rbp-0x4],eax
    }
}
    49ca:	8b 45 fc             	mov    eax,DWORD PTR [rbp-0x4]
    49cd:	48 83 c4 50          	add    rsp,0x50
    49d1:	5d                   	pop    rbp
    49d2:	c3                   	ret
    49d3:	66 66 66 66 2e 0f 1f 	data16 data16 data16 cs nop WORD PTR [rax+rax*1+0x0]
    49da:	84 00 00 00 00 00 

00000000000049e0 <_ZL15perform_dir_cmdR10TerminalIORKNSt7__cxx1112basic_stringIcSt11char_traitsIcESaIcEEE>:
{
    49e0:	55                   	push   rbp
    49e1:	48 89 e5             	mov    rbp,rsp
    49e4:	48 83 ec 30          	sub    rsp,0x30
    49e8:	48 89 7d f0          	mov    QWORD PTR [rbp-0x10],rdi
    49ec:	48 89 75 e8          	mov    QWORD PTR [rbp-0x18],rsi
    DIR* dir = opendir(path.c_str());
    49f0:	48 8b 7d e8          	mov    rdi,QWORD PTR [rbp-0x18]
    49f4:	e8 d7 14 00 00       	call   5ed0 <_ZNKSt7__cxx1112basic_stringIcSt11char_traitsIcESaIcEE5c_strEv>
    49f9:	48 89 c7             	mov    rdi,rax
    49fc:	e8 3f fd ff ff       	call   4740 <opendir@plt>
    4a01:	48 89 45 e0          	mov    QWORD PTR [rbp-0x20],rax
    if(dir == NULL)
    4a05:	48 83 7d e0 00       	cmp    QWORD PTR [rbp-0x20],0x0
    4a0a:	75 32                	jne    4a3e <_ZL15perform_dir_cmdR10TerminalIORKNSt7__cxx1112basic_stringIcSt11char_traitsIcESaIcEEE+0x5e>
        terminal.print_error("Error opening directory %s\r\n", path.c_str());
    4a0c:	48 8b 45 f0          	mov    rax,QWORD PTR [rbp-0x10]
    4a10:	48 89 45 d0          	mov    QWORD PTR [rbp-0x30],rax
    4a14:	48 8b 7d e8          	mov    rdi,QWORD PTR [rbp-0x18]
    4a18:	e8 b3 14 00 00       	call   5ed0 <_ZNKSt7__cxx1112basic_stringIcSt11char_traitsIcESaIcEE5c_strEv>
    4a1d:	48 8b 7d d0          	mov    rdi,QWORD PTR [rbp-0x30]
    4a21:	48 89 c2             	mov    rdx,rax
    4a24:	48 8d 35 0e c6 00 00 	lea    rsi,[rip+0xc60e]        # 11039 <_IO_stdin_used+0x39>
    4a2b:	b0 00                	mov    al,0x0
    4a2d:	e8 1e 49 00 00       	call   9350 <_ZN10TerminalIO11print_errorEPKcz>
        return 1;
    4a32:	c7 45 fc 01 00 00 00 	mov    DWORD PTR [rbp-0x4],0x1
    4a39:	e9 91 00 00 00       	jmp    4acf <_ZL15perform_dir_cmdR10TerminalIORKNSt7__cxx1112basic_stringIcSt11char_traitsIcESaIcEEE+0xef>
    struct dirent* entry = readdir(dir);
    4a3e:	48 8b 7d e0          	mov    rdi,QWORD PTR [rbp-0x20]
    4a42:	e8 39 fd ff ff       	call   4780 <readdir@plt>
    4a47:	48 89 45 d8          	mov    QWORD PTR [rbp-0x28],rax
    while(entry != NULL)
    4a4b:	48 83 7d d8 00       	cmp    QWORD PTR [rbp-0x28],0x0
    4a50:	74 5b                	je     4aad <_ZL15perform_dir_cmdR10TerminalIORKNSt7__cxx1112basic_stringIcSt11char_traitsIcESaIcEEE+0xcd>
        if(std::strcmp(entry->d_name, ".") != 0 && std::strcmp(entry->d_name, "..") != 0)
    4a52:	48 8b 7d d8          	mov    rdi,QWORD PTR [rbp-0x28]
    4a56:	48 83 c7 13          	add    rdi,0x13
    4a5a:	48 8d 35 c7 c6 00 00 	lea    rsi,[rip+0xc6c7]        # 11128 <_IO_stdin_used+0x128>
    4a61:	e8 5a fc ff ff       	call   46c0 <strcmp@plt>
    4a66:	83 f8 00             	cmp    eax,0x0
    4a69:	74 33                	je     4a9e <_ZL15perform_dir_cmdR10TerminalIORKNSt7__cxx1112basic_stringIcSt11char_traitsIcESaIcEEE+0xbe>
    4a6b:	48 8b 7d d8          	mov    rdi,QWORD PTR [rbp-0x28]
    4a6f:	48 83 c7 13          	add    rdi,0x13
    4a73:	48 8d 35 ad c6 00 00 	lea    rsi,[rip+0xc6ad]        # 11127 <_IO_stdin_used+0x127>
    4a7a:	e8 41 fc ff ff       	call   46c0 <strcmp@plt>
    4a7f:	83 f8 00             	cmp    eax,0x0
    4a82:	74 1a                	je     4a9e <_ZL15perform_dir_cmdR10TerminalIORKNSt7__cxx1112basic_stringIcSt11char_traitsIcESaIcEEE+0xbe>
            terminal.print("%s\r\n", entry->d_name);
    4a84:	48 8b 7d f0          	mov    rdi,QWORD PTR [rbp-0x10]
    4a88:	48 8b 55 d8          	mov    rdx,QWORD PTR [rbp-0x28]
    4a8c:	48 83 c2 13          	add    rdx,0x13
    4a90:	48 8d 35 ba c5 00 00 	lea    rsi,[rip+0xc5ba]        # 11051 <_IO_stdin_used+0x51>
    4a97:	b0 00                	mov    al,0x0
    4a99:	e8 d2 47 00 00       	call   9270 <_ZN10TerminalIO5printEPKcz>
        entry = readdir(dir);
    4a9e:	48 8b 7d e0          	mov    rdi,QWORD PTR [rbp-0x20]
    4aa2:	e8 d9 fc ff ff       	call   4780 <readdir@plt>
    4aa7:	48 89 45 d8          	mov    QWORD PTR [rbp-0x28],rax
    while(entry != NULL)
    4aab:	eb 9e                	jmp    4a4b <_ZL15perform_dir_cmdR10TerminalIORKNSt7__cxx1112basic_stringIcSt11char_traitsIcESaIcEEE+0x6b>
    terminal.print("\r\n");
    4aad:	48 8b 7d f0          	mov    rdi,QWORD PTR [rbp-0x10]
    4ab1:	48 8d 35 8f c9 00 00 	lea    rsi,[rip+0xc98f]        # 11447 <_IO_stdin_used+0x447>
    4ab8:	b0 00                	mov    al,0x0
    4aba:	e8 b1 47 00 00       	call   9270 <_ZN10TerminalIO5printEPKcz>
    closedir(dir);
    4abf:	48 8b 7d e0          	mov    rdi,QWORD PTR [rbp-0x20]
    4ac3:	e8 d8 fc ff ff       	call   47a0 <closedir@plt>
    return 0;
    4ac8:	c7 45 fc 00 00 00 00 	mov    DWORD PTR [rbp-0x4],0x0
}
    4acf:	8b 45 fc             	mov    eax,DWORD PTR [rbp-0x4]
    4ad2:	48 83 c4 30          	add    rsp,0x30
    4ad6:	5d                   	pop    rbp
    4ad7:	c3                   	ret
    4ad8:	0f 1f 84 00 00 00 00 	nop    DWORD PTR [rax+rax*1+0x0]
    4adf:	00 

0000000000004ae0 <_Z18update_current_dirRKNSt7__cxx1112basic_stringIcSt11char_traitsIcESaIcEEE>:


std::string update_current_dir(const std::string& current_dir)
{
    4ae0:	f3 0f 1e fa          	endbr64
    4ae4:	55                   	push   rbp
    4ae5:	48 89 e5             	mov    rbp,rsp
    4ae8:	48 81 ec 80 00 00 00 	sub    rsp,0x80
    4aef:	48 89 7d 90          	mov    QWORD PTR [rbp-0x70],rdi
    4af3:	48 89 f8             	mov    rax,rdi
    4af6:	48 89 45 98          	mov    QWORD PTR [rbp-0x68],rax
    4afa:	64 48 8b 04 25 28 00 	mov    rax,QWORD PTR fs:0x28
    4b01:	00 00 
    4b03:	48 89 45 f8          	mov    QWORD PTR [rbp-0x8],rax
    4b07:	48 89 7d c8          	mov    QWORD PTR [rbp-0x38],rdi
    4b0b:	48 89 75 c0          	mov    QWORD PTR [rbp-0x40],rsi
    char* dir = getcwd(NULL, 0);
    4b0f:	31 c0                	xor    eax,eax
    4b11:	89 c6                	mov    esi,eax
    4b13:	48 89 f7             	mov    rdi,rsi
    4b16:	e8 e5 f9 ff ff       	call   4500 <getcwd@plt>
    4b1b:	48 89 45 b8          	mov    QWORD PTR [rbp-0x48],rax
    if(dir == NULL)
    4b1f:	48 83 7d b8 00       	cmp    QWORD PTR [rbp-0x48],0x0
    4b24:	75 12                	jne    4b38 <_Z18update_current_dirRKNSt7__cxx1112basic_stringIcSt11char_traitsIcESaIcEEE+0x58>
    4b26:	48 8b 7d 90          	mov    rdi,QWORD PTR [rbp-0x70]
    {
        // on error, assume we stayed in the original directory
        return current_dir;
    4b2a:	48 8b 75 c0          	mov    rsi,QWORD PTR [rbp-0x40]
    4b2e:	e8 dd 13 00 00       	call   5f10 <_ZNSt7__cxx1112basic_stringIcSt11char_traitsIcESaIcEEC2ERKS4_>
    4b33:	e9 a6 00 00 00       	jmp    4bde <_Z18update_current_dirRKNSt7__cxx1112basic_stringIcSt11char_traitsIcESaIcEEE+0xfe>
    }
    setenv("PWD", dir, true);
    4b38:	48 8b 75 b8          	mov    rsi,QWORD PTR [rbp-0x48]
    4b3c:	48 8d 3d ce c4 00 00 	lea    rdi,[rip+0xc4ce]        # 11011 <_IO_stdin_used+0x11>
    4b43:	ba 01 00 00 00       	mov    edx,0x1
    4b48:	e8 03 fc ff ff       	call   4750 <setenv@plt>
    if(current_dir.length() > 0)
    4b4d:	48 8b 7d c0          	mov    rdi,QWORD PTR [rbp-0x40]
    4b51:	e8 2a 15 00 00       	call   6080 <_ZNKSt7__cxx1112basic_stringIcSt11char_traitsIcESaIcEE6lengthEv>
    4b56:	48 83 f8 00          	cmp    rax,0x0
    4b5a:	76 1d                	jbe    4b79 <_Z18update_current_dirRKNSt7__cxx1112basic_stringIcSt11char_traitsIcESaIcEEE+0x99>
    {
        setenv("OLDPWD", current_dir.c_str(), true);
    4b5c:	48 8b 7d c0          	mov    rdi,QWORD PTR [rbp-0x40]
    4b60:	e8 6b 13 00 00       	call   5ed0 <_ZNKSt7__cxx1112basic_stringIcSt11char_traitsIcESaIcEE5c_strEv>
    4b65:	48 89 c6             	mov    rsi,rax
    4b68:	48 8d 3d 9f c4 00 00 	lea    rdi,[rip+0xc49f]        # 1100e <_IO_stdin_used+0xe>
    4b6f:	ba 01 00 00 00       	mov    edx,0x1
    4b74:	e8 d7 fb ff ff       	call   4750 <setenv@plt>
    4b79:	48 8b 7d 90          	mov    rdi,QWORD PTR [rbp-0x70]
    }
    std::string res = dir;
    4b7d:	c6 45 b7 00          	mov    BYTE PTR [rbp-0x49],0x0
    4b81:	48 8b 75 b8          	mov    rsi,QWORD PTR [rbp-0x48]
    4b85:	48 8d 55 f7          	lea    rdx,[rbp-0x9]
    4b89:	48 89 55 d0          	mov    QWORD PTR [rbp-0x30],rdx
    4b8d:	48 8b 45 d0          	mov    rax,QWORD PTR [rbp-0x30]
    4b91:	48 89 45 e8          	mov    QWORD PTR [rbp-0x18],rax
    4b95:	e8 06 15 00 00       	call   60a0 <_ZNSt7__cxx1112basic_stringIcSt11char_traitsIcESaIcEEC2IS3_EEPKcRKS3_>
    4b9a:	eb 00                	jmp    4b9c <_Z18update_current_dirRKNSt7__cxx1112basic_stringIcSt11char_traitsIcESaIcEEE+0xbc>
    4b9c:	48 8d 45 f7          	lea    rax,[rbp-0x9]
    4ba0:	48 89 45 d8          	mov    QWORD PTR [rbp-0x28],rax
    free(dir); // dir is malloced
    4ba4:	48 8b 7d b8          	mov    rdi,QWORD PTR [rbp-0x48]
    4ba8:	e8 73 fa ff ff       	call   4620 <free@plt>
    return res;
    4bad:	c6 45 b7 01          	mov    BYTE PTR [rbp-0x49],0x1
}
    4bb1:	f6 45 b7 01          	test   BYTE PTR [rbp-0x49],0x1
    4bb5:	75 25                	jne    4bdc <_Z18update_current_dirRKNSt7__cxx1112basic_stringIcSt11char_traitsIcESaIcEEE+0xfc>
    4bb7:	eb 1a                	jmp    4bd3 <_Z18update_current_dirRKNSt7__cxx1112basic_stringIcSt11char_traitsIcESaIcEEE+0xf3>
    4bb9:	f3 0f 1e fa          	endbr64
    4bbd:	48 89 c1             	mov    rcx,rax
    4bc0:	89 d0                	mov    eax,edx
    4bc2:	48 89 4d a8          	mov    QWORD PTR [rbp-0x58],rcx
    4bc6:	89 45 a4             	mov    DWORD PTR [rbp-0x5c],eax
    4bc9:	48 8d 45 f7          	lea    rax,[rbp-0x9]
    4bcd:	48 89 45 e0          	mov    QWORD PTR [rbp-0x20],rax
    std::string res = dir;
    4bd1:	eb 2a                	jmp    4bfd <_Z18update_current_dirRKNSt7__cxx1112basic_stringIcSt11char_traitsIcESaIcEEE+0x11d>
    4bd3:	48 8b 7d 90          	mov    rdi,QWORD PTR [rbp-0x70]
}
    4bd7:	e8 74 15 00 00       	call   6150 <_ZNSt7__cxx1112basic_stringIcSt11char_traitsIcESaIcEED2Ev>
    4bdc:	eb 00                	jmp    4bde <_Z18update_current_dirRKNSt7__cxx1112basic_stringIcSt11char_traitsIcESaIcEEE+0xfe>
    4bde:	64 48 8b 04 25 28 00 	mov    rax,QWORD PTR fs:0x28
    4be5:	00 00 
    4be7:	48 8b 4d f8          	mov    rcx,QWORD PTR [rbp-0x8]
    4beb:	48 39 c8             	cmp    rax,rcx
    4bee:	75 30                	jne    4c20 <_Z18update_current_dirRKNSt7__cxx1112basic_stringIcSt11char_traitsIcESaIcEEE+0x140>
    4bf0:	48 8b 45 98          	mov    rax,QWORD PTR [rbp-0x68]
    4bf4:	48 81 c4 80 00 00 00 	add    rsp,0x80
    4bfb:	5d                   	pop    rbp
    4bfc:	c3                   	ret
    std::string res = dir;
    4bfd:	48 8b 45 a8          	mov    rax,QWORD PTR [rbp-0x58]
    4c01:	48 89 45 88          	mov    QWORD PTR [rbp-0x78],rax
    4c05:	64 48 8b 04 25 28 00 	mov    rax,QWORD PTR fs:0x28
    4c0c:	00 00 
    4c0e:	48 8b 4d f8          	mov    rcx,QWORD PTR [rbp-0x8]
    4c12:	48 39 c8             	cmp    rax,rcx
    4c15:	75 09                	jne    4c20 <_Z18update_current_dirRKNSt7__cxx1112basic_stringIcSt11char_traitsIcESaIcEEE+0x140>
    4c17:	48 8b 7d 88          	mov    rdi,QWORD PTR [rbp-0x78]
    4c1b:	e8 60 f8 ff ff       	call   4480 <_Unwind_Resume@plt>
    4c20:	e8 ab f9 ff ff       	call   45d0 <__stack_chk_fail@plt>
    4c25:	66 66 2e 0f 1f 84 00 	data16 cs nop WORD PTR [rax+rax*1+0x0]
    4c2c:	00 00 00 00 

0000000000004c30 <_Z6cd_cmdR10TerminalIORNSt7__cxx1112basic_stringIcSt11char_traitsIcESaIcEEERKSt6vectorIS6_SaIS6_EE>:

int cd_cmd(TerminalIO& terminal, std::string& current_dir, const std::vector<std::string>& args)
{
    4c30:	f3 0f 1e fa          	endbr64
    4c34:	55                   	push   rbp
    4c35:	48 89 e5             	mov    rbp,rsp
    4c38:	48 81 ec 90 00 00 00 	sub    rsp,0x90
    4c3f:	64 48 8b 04 25 28 00 	mov    rax,QWORD PTR fs:0x28
    4c46:	00 00 
    4c48:	48 89 45 f8          	mov    QWORD PTR [rbp-0x8],rax
    4c4c:	48 89 7d a8          	mov    QWORD PTR [rbp-0x58],rdi
    4c50:	48 89 75 a0          	mov    QWORD PTR [rbp-0x60],rsi
    4c54:	48 89 55 98          	mov    QWORD PTR [rbp-0x68],rdx
    if(args.size() == 0)
    4c58:	48 8b 7d 98          	mov    rdi,QWORD PTR [rbp-0x68]
    4c5c:	e8 1f 12 00 00       	call   5e80 <_ZNKSt6vectorINSt7__cxx1112basic_stringIcSt11char_traitsIcESaIcEEESaIS5_EE4sizeEv>
    4c61:	48 83 f8 00          	cmp    rax,0x0
    4c65:	0f 85 8b 00 00 00    	jne    4cf6 <_Z6cd_cmdR10TerminalIORNSt7__cxx1112basic_stringIcSt11char_traitsIcESaIcEEERKSt6vectorIS6_SaIS6_EE+0xc6>
    {
        const char* home = getenv("HOME");
    4c6b:	48 8d 3d a3 c3 00 00 	lea    rdi,[rip+0xc3a3]        # 11015 <_IO_stdin_used+0x15>
    4c72:	e8 c9 f9 ff ff       	call   4640 <getenv@plt>
    4c77:	48 89 45 90          	mov    QWORD PTR [rbp-0x70],rax
        if(home == NULL)
    4c7b:	48 83 7d 90 00       	cmp    QWORD PTR [rbp-0x70],0x0
    4c80:	75 1e                	jne    4ca0 <_Z6cd_cmdR10TerminalIORNSt7__cxx1112basic_stringIcSt11char_traitsIcESaIcEEERKSt6vectorIS6_SaIS6_EE+0x70>
        {
            terminal.print_error("Error getting home directory\r\n");
    4c82:	48 8b 7d a8          	mov    rdi,QWORD PTR [rbp-0x58]
    4c86:	48 8d 35 8d c3 00 00 	lea    rsi,[rip+0xc38d]        # 1101a <_IO_stdin_used+0x1a>
    4c8d:	b0 00                	mov    al,0x0
    4c8f:	e8 bc 46 00 00       	call   9350 <_ZN10TerminalIO11print_errorEPKcz>
            return -1;
    4c94:	c7 45 b4 ff ff ff ff 	mov    DWORD PTR [rbp-0x4c],0xffffffff
    4c9b:	e9 0e 01 00 00       	jmp    4dae <_Z6cd_cmdR10TerminalIORNSt7__cxx1112basic_stringIcSt11char_traitsIcESaIcEEERKSt6vectorIS6_SaIS6_EE+0x17e>
        }
        int value = chdir(home);
    4ca0:	48 8b 7d 90          	mov    rdi,QWORD PTR [rbp-0x70]
    4ca4:	e8 67 fa ff ff       	call   4710 <chdir@plt>
    4ca9:	89 45 8c             	mov    DWORD PTR [rbp-0x74],eax
        current_dir = update_current_dir(current_dir);
    4cac:	48 8b 75 a0          	mov    rsi,QWORD PTR [rbp-0x60]
    4cb0:	48 8d 7d d8          	lea    rdi,[rbp-0x28]
    4cb4:	e8 27 fe ff ff       	call   4ae0 <_Z18update_current_dirRKNSt7__cxx1112basic_stringIcSt11char_traitsIcESaIcEEE>
    4cb9:	48 8b 7d a0          	mov    rdi,QWORD PTR [rbp-0x60]
    4cbd:	48 8d 75 d8          	lea    rsi,[rbp-0x28]
    4cc1:	e8 ca 14 00 00       	call   6190 <_ZNSt7__cxx1112basic_stringIcSt11char_traitsIcESaIcEEaSEOS4_>
    4cc6:	48 8d 7d d8          	lea    rdi,[rbp-0x28]
    4cca:	e8 81 14 00 00       	call   6150 <_ZNSt7__cxx1112basic_stringIcSt11char_traitsIcESaIcEED2Ev>
        if(value != 0)
    4ccf:	83 7d 8c 00          	cmp    DWORD PTR [rbp-0x74],0x0
    4cd3:	74 16                	je     4ceb <_Z6cd_cmdR10TerminalIORNSt7__cxx1112basic_stringIcSt11char_traitsIcESaIcEEERKSt6vectorIS6_SaIS6_EE+0xbb>
        {
            terminal.print_error("Error opening directory %s\r\n", home);
    4cd5:	48 8b 7d a8          	mov    rdi,QWORD PTR [rbp-0x58]
    4cd9:	48 8b 55 90          	mov    rdx,QWORD PTR [rbp-0x70]
    4cdd:	48 8d 35 55 c3 00 00 	lea    rsi,[rip+0xc355]        # 11039 <_IO_stdin_used+0x39>
    4ce4:	b0 00                	mov    al,0x0
    4ce6:	e8 65 46 00 00       	call   9350 <_ZN10TerminalIO11print_errorEPKcz>
        }
        return value;
    4ceb:	8b 45 8c             	mov    eax,DWORD PTR [rbp-0x74]
    4cee:	89 45 b4             	mov    DWORD PTR [rbp-0x4c],eax
    4cf1:	e9 b8 00 00 00       	jmp    4dae <_Z6cd_cmdR10TerminalIORNSt7__cxx1112basic_stringIcSt11char_traitsIcESaIcEEERKSt6vectorIS6_SaIS6_EE+0x17e>
    }
    else if(args.size() == 1)
    4cf6:	48 8b 7d 98          	mov    rdi,QWORD PTR [rbp-0x68]
    4cfa:	e8 81 11 00 00       	call   5e80 <_ZNKSt6vectorINSt7__cxx1112basic_stringIcSt11char_traitsIcESaIcEEESaIS5_EE4sizeEv>
    4cff:	48 83 f8 01          	cmp    rax,0x1
    4d03:	75 76                	jne    4d7b <_Z6cd_cmdR10TerminalIORNSt7__cxx1112basic_stringIcSt11char_traitsIcESaIcEEERKSt6vectorIS6_SaIS6_EE+0x14b>
    {
        int value = chdir(args[0].c_str());
    4d05:	48 8b 7d 98          	mov    rdi,QWORD PTR [rbp-0x68]
    4d09:	31 c0                	xor    eax,eax
    4d0b:	89 c6                	mov    esi,eax
    4d0d:	e8 8e 11 00 00       	call   5ea0 <_ZNKSt6vectorINSt7__cxx1112basic_stringIcSt11char_traitsIcESaIcEEESaIS5_EEixEm>
    4d12:	48 89 c7             	mov    rdi,rax
    4d15:	e8 b6 11 00 00       	call   5ed0 <_ZNKSt7__cxx1112basic_stringIcSt11char_traitsIcESaIcEE5c_strEv>
    4d1a:	48 89 c7             	mov    rdi,rax
    4d1d:	e8 ee f9 ff ff       	call   4710 <chdir@plt>
    4d22:	89 45 88             	mov    DWORD PTR [rbp-0x78],eax
        update_current_dir(current_dir);
    4d25:	48 8b 75 a0          	mov    rsi,QWORD PTR [rbp-0x60]
    4d29:	48 8d 7d b8          	lea    rdi,[rbp-0x48]
    4d2d:	e8 ae fd ff ff       	call   4ae0 <_Z18update_current_dirRKNSt7__cxx1112basic_stringIcSt11char_traitsIcESaIcEEE>
    4d32:	48 8d 7d b8          	lea    rdi,[rbp-0x48]
    4d36:	e8 15 14 00 00       	call   6150 <_ZNSt7__cxx1112basic_stringIcSt11char_traitsIcESaIcEED2Ev>
        if(value != 0)
    4d3b:	83 7d 88 00          	cmp    DWORD PTR [rbp-0x78],0x0
    4d3f:	74 32                	je     4d73 <_Z6cd_cmdR10TerminalIORNSt7__cxx1112basic_stringIcSt11char_traitsIcESaIcEEERKSt6vectorIS6_SaIS6_EE+0x143>
        {
            terminal.print_error("Error opening directory %s\r\n", args[0].c_str());
    4d41:	48 8b 45 a8          	mov    rax,QWORD PTR [rbp-0x58]
    4d45:	48 89 45 80          	mov    QWORD PTR [rbp-0x80],rax
    4d49:	48 8b 7d 98          	mov    rdi,QWORD PTR [rbp-0x68]
    4d4d:	31 c0                	xor    eax,eax
    4d4f:	89 c6                	mov    esi,eax
    4d51:	e8 4a 11 00 00       	call   5ea0 <_ZNKSt6vectorINSt7__cxx1112basic_stringIcSt11char_traitsIcESaIcEEESaIS5_EEixEm>
    4d56:	48 89 c7             	mov    rdi,rax
    4d59:	e8 72 11 00 00       	call   5ed0 <_ZNKSt7__cxx1112basic_stringIcSt11char_traitsIcESaIcEE5c_strEv>
    4d5e:	48 8b 7d 80          	mov    rdi,QWORD PTR [rbp-0x80]
    4d62:	48 89 c2             	mov    rdx,rax
    4d65:	48 8d 35 cd c2 00 00 	lea    rsi,[rip+0xc2cd]        # 11039 <_IO_stdin_used+0x39>
    4d6c:	b0 00                	mov    al,0x0
    4d6e:	e8 dd 45 00 00       	call   9350 <_ZN10TerminalIO11print_errorEPKcz>
        }
        return value;
    4d73:	8b 45 88             	mov    eax,DWORD PTR [rbp-0x78]
    4d76:	89 45 b4             	mov    DWORD PTR [rbp-0x4c],eax
    4d79:	eb 33                	jmp    4dae <_Z6cd_cmdR10TerminalIORNSt7__cxx1112basic_stringIcSt11char_traitsIcESaIcEEERKSt6vectorIS6_SaIS6_EE+0x17e>
    }
    else
    {
        terminal.print_error("Expected at most 1 argument for '@'. Got %zu\r\n", args.size());
    4d7b:	48 8b 45 a8          	mov    rax,QWORD PTR [rbp-0x58]
    4d7f:	48 89 85 78 ff ff ff 	mov    QWORD PTR [rbp-0x88],rax
    4d86:	48 8b 7d 98          	mov    rdi,QWORD PTR [rbp-0x68]
    4d8a:	e8 f1 10 00 00       	call   5e80 <_ZNKSt6vectorINSt7__cxx1112basic_stringIcSt11char_traitsIcESaIcEEESaIS5_EE4sizeEv>
    4d8f:	48 8b bd 78 ff ff ff 	mov    rdi,QWORD PTR [rbp-0x88]
    4d96:	48 89 c2             	mov    rdx,rax
    4d99:	48 8d 35 b6 c2 00 00 	lea    rsi,[rip+0xc2b6]        # 11056 <_IO_stdin_used+0x56>
    4da0:	b0 00                	mov    al,0x0
    4da2:	e8 a9 45 00 00       	call   9350 <_ZN10TerminalIO11print_errorEPKcz>
        return -1;
    4da7:	c7 45 b4 ff ff ff ff 	mov    DWORD PTR [rbp-0x4c],0xffffffff
    }
}
    4dae:	8b 45 b4             	mov    eax,DWORD PTR [rbp-0x4c]
    4db1:	89 85 74 ff ff ff    	mov    DWORD PTR [rbp-0x8c],eax
    4db7:	64 48 8b 04 25 28 00 	mov    rax,QWORD PTR fs:0x28
    4dbe:	00 00 
    4dc0:	48 8b 4d f8          	mov    rcx,QWORD PTR [rbp-0x8]
    4dc4:	48 39 c8             	cmp    rax,rcx
    4dc7:	75 0f                	jne    4dd8 <_Z6cd_cmdR10TerminalIORNSt7__cxx1112basic_stringIcSt11char_traitsIcESaIcEEERKSt6vectorIS6_SaIS6_EE+0x1a8>
    4dc9:	8b 85 74 ff ff ff    	mov    eax,DWORD PTR [rbp-0x8c]
    4dcf:	48 81 c4 90 00 00 00 	add    rsp,0x90
    4dd6:	5d                   	pop    rbp
    4dd7:	c3                   	ret
    4dd8:	e8 f3 f7 ff ff       	call   45d0 <__stack_chk_fail@plt>
    4ddd:	0f 1f 00             	nop    DWORD PTR [rax]

0000000000004de0 <_Z7pwd_cmdR10TerminalIORKNSt7__cxx1112basic_stringIcSt11char_traitsIcESaIcEEERKSt6vectorIS6_SaIS6_EE>:

int pwd_cmd(TerminalIO& terminal, const std::string& current_dir, const std::vector<std::string>& args)
{
    4de0:	f3 0f 1e fa          	endbr64
    4de4:	55                   	push   rbp
    4de5:	48 89 e5             	mov    rbp,rsp
    4de8:	48 83 ec 30          	sub    rsp,0x30
    4dec:	48 89 7d f0          	mov    QWORD PTR [rbp-0x10],rdi
    4df0:	48 89 75 e8          	mov    QWORD PTR [rbp-0x18],rsi
    4df4:	48 89 55 e0          	mov    QWORD PTR [rbp-0x20],rdx
    if(args.size() == 0)
    4df8:	48 8b 7d e0          	mov    rdi,QWORD PTR [rbp-0x20]
    4dfc:	e8 7f 10 00 00       	call   5e80 <_ZNKSt6vectorINSt7__cxx1112basic_stringIcSt11char_traitsIcESaIcEEESaIS5_EE4sizeEv>
    4e01:	48 83 f8 00          	cmp    rax,0x0
    4e05:	75 2f                	jne    4e36 <_Z7pwd_cmdR10TerminalIORKNSt7__cxx1112basic_stringIcSt11char_traitsIcESaIcEEERKSt6vectorIS6_SaIS6_EE+0x56>
    {
        terminal.print("%s\r\n", current_dir.c_str()); 
    4e07:	48 8b 45 f0          	mov    rax,QWORD PTR [rbp-0x10]
    4e0b:	48 89 45 d8          	mov    QWORD PTR [rbp-0x28],rax
    4e0f:	48 8b 7d e8          	mov    rdi,QWORD PTR [rbp-0x18]
    4e13:	e8 b8 10 00 00       	call   5ed0 <_ZNKSt7__cxx1112basic_stringIcSt11char_traitsIcESaIcEE5c_strEv>
    4e18:	48 8b 7d d8          	mov    rdi,QWORD PTR [rbp-0x28]
    4e1c:	48 89 c2             	mov    rdx,rax
    4e1f:	48 8d 35 2b c2 00 00 	lea    rsi,[rip+0xc22b]        # 11051 <_IO_stdin_used+0x51>
    4e26:	b0 00                	mov    al,0x0
    4e28:	e8 43 44 00 00       	call   9270 <_ZN10TerminalIO5printEPKcz>
        return 0;
    4e2d:	c7 45 fc 00 00 00 00 	mov    DWORD PTR [rbp-0x4],0x0
    4e34:	eb 2d                	jmp    4e63 <_Z7pwd_cmdR10TerminalIORKNSt7__cxx1112basic_stringIcSt11char_traitsIcESaIcEEERKSt6vectorIS6_SaIS6_EE+0x83>
    }
    else
    {
        terminal.print_error("Expected no arguments for 'pwd'. Got %zu\r\n", args.size());
    4e36:	48 8b 45 f0          	mov    rax,QWORD PTR [rbp-0x10]
    4e3a:	48 89 45 d0          	mov    QWORD PTR [rbp-0x30],rax
    4e3e:	48 8b 7d e0          	mov    rdi,QWORD PTR [rbp-0x20]
    4e42:	e8 39 10 00 00       	call   5e80 <_ZNKSt6vectorINSt7__cxx1112basic_stringIcSt11char_traitsIcESaIcEEESaIS5_EE4sizeEv>
    4e47:	48 8b 7d d0          	mov    rdi,QWORD PTR [rbp-0x30]
    4e4b:	48 89 c2             	mov    rdx,rax
    4e4e:	48 8d 35 30 c2 00 00 	lea    rsi,[rip+0xc230]        # 11085 <_IO_stdin_used+0x85>
    4e55:	b0 00                	mov    al,0x0
    4e57:	e8 f4 44 00 00       	call   9350 <_ZN10TerminalIO11print_errorEPKcz>
        return -1;
    4e5c:	c7 45 fc ff ff ff ff 	mov    DWORD PTR [rbp-0x4],0xffffffff
    }
}
    4e63:	8b 45 fc             	mov    eax,DWORD PTR [rbp-0x4]
    4e66:	48 83 c4 30          	add    rsp,0x30
    4e6a:	5d                   	pop    rbp
    4e6b:	c3                   	ret
    4e6c:	0f 1f 40 00          	nop    DWORD PTR [rax+0x0]

0000000000004e70 <_Z17get_argument_listRKSt6vectorINSt7__cxx1112basic_stringIcSt11char_traitsIcESaIcEEESaIS5_EE>:

char** get_argument_list(const std::vector<std::string>& args)
{
    4e70:	f3 0f 1e fa          	endbr64
    4e74:	55                   	push   rbp
    4e75:	48 89 e5             	mov    rbp,rsp
    4e78:	48 83 ec 40          	sub    rsp,0x40
    4e7c:	48 89 7d f8          	mov    QWORD PTR [rbp-0x8],rdi
   char** arguments = allocate_array<char*>(args.size() + 1);
    4e80:	48 8b 7d f8          	mov    rdi,QWORD PTR [rbp-0x8]
    4e84:	e8 f7 0f 00 00       	call   5e80 <_ZNKSt6vectorINSt7__cxx1112basic_stringIcSt11char_traitsIcESaIcEEESaIS5_EE4sizeEv>
    4e89:	48 89 c7             	mov    rdi,rax
    4e8c:	48 83 c7 01          	add    rdi,0x1
    4e90:	e8 0b 15 00 00       	call   63a0 <_Z14allocate_arrayIPcEPT_m>
    4e95:	48 89 45 f0          	mov    QWORD PTR [rbp-0x10],rax
   for(size_t i = 0; i < args.size(); i++)
    4e99:	48 c7 45 e8 00 00 00 	mov    QWORD PTR [rbp-0x18],0x0
    4ea0:	00 
    4ea1:	48 8b 45 e8          	mov    rax,QWORD PTR [rbp-0x18]
    4ea5:	48 89 45 e0          	mov    QWORD PTR [rbp-0x20],rax
    4ea9:	48 8b 7d f8          	mov    rdi,QWORD PTR [rbp-0x8]
    4ead:	e8 ce 0f 00 00       	call   5e80 <_ZNKSt6vectorINSt7__cxx1112basic_stringIcSt11char_traitsIcESaIcEEESaIS5_EE4sizeEv>
    4eb2:	48 89 c1             	mov    rcx,rax
    4eb5:	48 8b 45 e0          	mov    rax,QWORD PTR [rbp-0x20]
    4eb9:	48 39 c8             	cmp    rax,rcx
    4ebc:	0f 83 c3 00 00 00    	jae    4f85 <_Z17get_argument_listRKSt6vectorINSt7__cxx1112basic_stringIcSt11char_traitsIcESaIcEEESaIS5_EE+0x115>
   {
       arguments[i] = allocate_array<char>(args[i].length() + 1);
    4ec2:	48 8b 7d f8          	mov    rdi,QWORD PTR [rbp-0x8]
    4ec6:	48 8b 75 e8          	mov    rsi,QWORD PTR [rbp-0x18]
    4eca:	e8 d1 0f 00 00       	call   5ea0 <_ZNKSt6vectorINSt7__cxx1112basic_stringIcSt11char_traitsIcESaIcEEESaIS5_EEixEm>
    4ecf:	48 89 c7             	mov    rdi,rax
    4ed2:	e8 a9 11 00 00       	call   6080 <_ZNKSt7__cxx1112basic_stringIcSt11char_traitsIcESaIcEE6lengthEv>
    4ed7:	48 89 c7             	mov    rdi,rax
    4eda:	48 83 c7 01          	add    rdi,0x1
    4ede:	e8 2d 15 00 00       	call   6410 <_Z14allocate_arrayIcEPT_m>
    4ee3:	48 89 c2             	mov    rdx,rax
    4ee6:	48 8b 45 f0          	mov    rax,QWORD PTR [rbp-0x10]
    4eea:	48 8b 4d e8          	mov    rcx,QWORD PTR [rbp-0x18]
    4eee:	48 89 14 c8          	mov    QWORD PTR [rax+rcx*8],rdx
       std::memcpy(arguments[i], args[i].c_str(), sizeof(char) * args[i].length());
    4ef2:	48 8b 45 f0          	mov    rax,QWORD PTR [rbp-0x10]
    4ef6:	48 8b 4d e8          	mov    rcx,QWORD PTR [rbp-0x18]
    4efa:	48 8b 04 c8          	mov    rax,QWORD PTR [rax+rcx*8]
    4efe:	48 89 45 c8          	mov    QWORD PTR [rbp-0x38],rax
    4f02:	48 8b 7d f8          	mov    rdi,QWORD PTR [rbp-0x8]
    4f06:	48 8b 75 e8          	mov    rsi,QWORD PTR [rbp-0x18]
    4f0a:	e8 91 0f 00 00       	call   5ea0 <_ZNKSt6vectorINSt7__cxx1112basic_stringIcSt11char_traitsIcESaIcEEESaIS5_EEixEm>
    4f0f:	48 89 c7             	mov    rdi,rax
    4f12:	e8 b9 0f 00 00       	call   5ed0 <_ZNKSt7__cxx1112basic_stringIcSt11char_traitsIcESaIcEE5c_strEv>
    4f17:	48 89 45 d0          	mov    QWORD PTR [rbp-0x30],rax
    4f1b:	48 8b 7d f8          	mov    rdi,QWORD PTR [rbp-0x8]
    4f1f:	48 8b 75 e8          	mov    rsi,QWORD PTR [rbp-0x18]
    4f23:	e8 78 0f 00 00       	call   5ea0 <_ZNKSt6vectorINSt7__cxx1112basic_stringIcSt11char_traitsIcESaIcEEESaIS5_EEixEm>
    4f28:	48 89 c7             	mov    rdi,rax
    4f2b:	e8 50 11 00 00       	call   6080 <_ZNKSt7__cxx1112basic_stringIcSt11char_traitsIcESaIcEE6lengthEv>
    4f30:	48 8b 7d c8          	mov    rdi,QWORD PTR [rbp-0x38]
    4f34:	48 8b 75 d0          	mov    rsi,QWORD PTR [rbp-0x30]
    4f38:	48 89 c2             	mov    rdx,rax
    4f3b:	48 c1 e2 00          	shl    rdx,0x0
    4f3f:	e8 1c f6 ff ff       	call   4560 <memcpy@plt>
       arguments[i][args[i].length()] = 0;
    4f44:	48 8b 45 f0          	mov    rax,QWORD PTR [rbp-0x10]
    4f48:	48 8b 4d e8          	mov    rcx,QWORD PTR [rbp-0x18]
    4f4c:	48 8b 04 c8          	mov    rax,QWORD PTR [rax+rcx*8]
    4f50:	48 89 45 d8          	mov    QWORD PTR [rbp-0x28],rax
    4f54:	48 8b 7d f8          	mov    rdi,QWORD PTR [rbp-0x8]
    4f58:	48 8b 75 e8          	mov    rsi,QWORD PTR [rbp-0x18]
    4f5c:	e8 3f 0f 00 00       	call   5ea0 <_ZNKSt6vectorINSt7__cxx1112basic_stringIcSt11char_traitsIcESaIcEEESaIS5_EEixEm>
    4f61:	48 89 c7             	mov    rdi,rax
    4f64:	e8 17 11 00 00       	call   6080 <_ZNKSt7__cxx1112basic_stringIcSt11char_traitsIcESaIcEE6lengthEv>
    4f69:	48 89 c1             	mov    rcx,rax
    4f6c:	48 8b 45 d8          	mov    rax,QWORD PTR [rbp-0x28]
    4f70:	c6 04 08 00          	mov    BYTE PTR [rax+rcx*1],0x0
   for(size_t i = 0; i < args.size(); i++)
    4f74:	48 8b 45 e8          	mov    rax,QWORD PTR [rbp-0x18]
    4f78:	48 83 c0 01          	add    rax,0x1
    4f7c:	48 89 45 e8          	mov    QWORD PTR [rbp-0x18],rax
    4f80:	e9 1c ff ff ff       	jmp    4ea1 <_Z17get_argument_listRKSt6vectorINSt7__cxx1112basic_stringIcSt11char_traitsIcESaIcEEESaIS5_EE+0x31>
   }
   arguments[args.size()] = NULL;
    4f85:	48 8b 45 f0          	mov    rax,QWORD PTR [rbp-0x10]
    4f89:	48 89 45 c0          	mov    QWORD PTR [rbp-0x40],rax
    4f8d:	48 8b 7d f8          	mov    rdi,QWORD PTR [rbp-0x8]
    4f91:	e8 ea 0e 00 00       	call   5e80 <_ZNKSt6vectorINSt7__cxx1112basic_stringIcSt11char_traitsIcESaIcEEESaIS5_EE4sizeEv>
    4f96:	48 89 c1             	mov    rcx,rax
    4f99:	48 8b 45 c0          	mov    rax,QWORD PTR [rbp-0x40]
    4f9d:	48 c7 04 c8 00 00 00 	mov    QWORD PTR [rax+rcx*8],0x0
    4fa4:	00 
   return arguments;
    4fa5:	48 8b 45 f0          	mov    rax,QWORD PTR [rbp-0x10]
    4fa9:	48 83 c4 40          	add    rsp,0x40
    4fad:	5d                   	pop    rbp
    4fae:	c3                   	ret
    4faf:	90                   	nop

0000000000004fb0 <_Z14parse_env_pathB5cxx11v>:
}

std::vector<std::string> parse_env_path()
{
    4fb0:	f3 0f 1e fa          	endbr64
    4fb4:	55                   	push   rbp
    4fb5:	48 89 e5             	mov    rbp,rsp
    4fb8:	48 81 ec 80 00 00 00 	sub    rsp,0x80
    4fbf:	48 89 7d 90          	mov    QWORD PTR [rbp-0x70],rdi
    4fc3:	48 89 f8             	mov    rax,rdi
    4fc6:	48 89 45 98          	mov    QWORD PTR [rbp-0x68],rax
    4fca:	64 48 8b 04 25 28 00 	mov    rax,QWORD PTR fs:0x28
    4fd1:	00 00 
    4fd3:	48 89 45 f8          	mov    QWORD PTR [rbp-0x8],rax
    4fd7:	48 89 7d d0          	mov    QWORD PTR [rbp-0x30],rdi
    std::vector<std::string> paths;
    4fdb:	c6 45 cf 00          	mov    BYTE PTR [rbp-0x31],0x0
    4fdf:	e8 7c 14 00 00       	call   6460 <_ZNSt6vectorINSt7__cxx1112basic_stringIcSt11char_traitsIcESaIcEEESaIS5_EEC2Ev>
    char* path = getenv("PATH");
    4fe4:	48 8d 3d c5 c0 00 00 	lea    rdi,[rip+0xc0c5]        # 110b0 <_IO_stdin_used+0xb0>
    4feb:	e8 50 f6 ff ff       	call   4640 <getenv@plt>
    4ff0:	48 89 45 c0          	mov    QWORD PTR [rbp-0x40],rax
    if(path == NULL)
    4ff4:	48 83 7d c0 00       	cmp    QWORD PTR [rbp-0x40],0x0
    4ff9:	75 10                	jne    500b <_Z14parse_env_pathB5cxx11v+0x5b>
    {
        return paths;
    4ffb:	c6 45 cf 01          	mov    BYTE PTR [rbp-0x31],0x1
    4fff:	c7 45 bc 01 00 00 00 	mov    DWORD PTR [rbp-0x44],0x1
    5006:	e9 f0 00 00 00       	jmp    50fb <_Z14parse_env_pathB5cxx11v+0x14b>
    }
    size_t index = 0;
    500b:	48 c7 45 b0 00 00 00 	mov    QWORD PTR [rbp-0x50],0x0
    5012:	00 
    std::string path_elem;
    5013:	48 8d 7d d8          	lea    rdi,[rbp-0x28]
    5017:	e8 64 14 00 00       	call   6480 <_ZNSt7__cxx1112basic_stringIcSt11char_traitsIcESaIcEEC2Ev>
    while(path[index] != 0)
    501c:	48 8b 45 c0          	mov    rax,QWORD PTR [rbp-0x40]
    5020:	48 8b 4d b0          	mov    rcx,QWORD PTR [rbp-0x50]
    5024:	0f be 04 08          	movsx  eax,BYTE PTR [rax+rcx*1]
    5028:	83 f8 00             	cmp    eax,0x0
    502b:	0f 84 96 00 00 00    	je     50c7 <_Z14parse_env_pathB5cxx11v+0x117>
    {
        if(path[index] == ':')
    5031:	48 8b 45 c0          	mov    rax,QWORD PTR [rbp-0x40]
    5035:	48 8b 4d b0          	mov    rcx,QWORD PTR [rbp-0x50]
    5039:	0f be 04 08          	movsx  eax,BYTE PTR [rax+rcx*1]
    503d:	83 f8 3a             	cmp    eax,0x3a
    5040:	75 5b                	jne    509d <_Z14parse_env_pathB5cxx11v+0xed>
        {
            if(path_elem.length() > 0)
    5042:	48 8d 7d d8          	lea    rdi,[rbp-0x28]
    5046:	e8 35 10 00 00       	call   6080 <_ZNKSt7__cxx1112basic_stringIcSt11char_traitsIcESaIcEE6lengthEv>
    504b:	48 83 f8 00          	cmp    rax,0x0
    504f:	76 38                	jbe    5089 <_Z14parse_env_pathB5cxx11v+0xd9>
    5051:	48 8b 7d 90          	mov    rdi,QWORD PTR [rbp-0x70]
    5055:	48 8d 75 d8          	lea    rsi,[rbp-0x28]
            {
                paths.emplace_back(path_elem);
    5059:	e8 b2 14 00 00       	call   6510 <_ZNSt6vectorINSt7__cxx1112basic_stringIcSt11char_traitsIcESaIcEEESaIS5_EE12emplace_backIJRS5_EEES9_DpOT_>
    505e:	eb 00                	jmp    5060 <_Z14parse_env_pathB5cxx11v+0xb0>
            }
    5060:	eb 27                	jmp    5089 <_Z14parse_env_pathB5cxx11v+0xd9>
    5062:	f3 0f 1e fa          	endbr64
    5066:	48 89 c1             	mov    rcx,rax
    if(path_elem.length() > 0)
    {
        paths.emplace_back(path_elem);
    }
    return paths;
}
    5069:	89 d0                	mov    eax,edx
    506b:	48 89 4d a8          	mov    QWORD PTR [rbp-0x58],rcx
    506f:	89 45 a4             	mov    DWORD PTR [rbp-0x5c],eax
    5072:	48 8d 7d d8          	lea    rdi,[rbp-0x28]
    5076:	e8 d5 10 00 00       	call   6150 <_ZNSt7__cxx1112basic_stringIcSt11char_traitsIcESaIcEED2Ev>
    507b:	48 8b 7d 90          	mov    rdi,QWORD PTR [rbp-0x70]
    507f:	e8 7c 15 00 00       	call   6600 <_ZNSt6vectorINSt7__cxx1112basic_stringIcSt11char_traitsIcESaIcEEESaIS5_EED2Ev>
    5084:	e9 a0 00 00 00       	jmp    5129 <_Z14parse_env_pathB5cxx11v+0x179>
            path_elem = "";
    5089:	48 8d 35 b9 c3 00 00 	lea    rsi,[rip+0xc3b9]        # 11449 <_IO_stdin_used+0x449>
    5090:	48 8d 7d d8          	lea    rdi,[rbp-0x28]
    5094:	e8 f7 14 00 00       	call   6590 <_ZNSt7__cxx1112basic_stringIcSt11char_traitsIcESaIcEEaSEPKc>
    5099:	eb 00                	jmp    509b <_Z14parse_env_pathB5cxx11v+0xeb>
        }
    509b:	eb 19                	jmp    50b6 <_Z14parse_env_pathB5cxx11v+0x106>
            path_elem += path[index];
    509d:	48 8b 45 c0          	mov    rax,QWORD PTR [rbp-0x40]
    50a1:	48 8b 4d b0          	mov    rcx,QWORD PTR [rbp-0x50]
    50a5:	0f be 34 08          	movsx  esi,BYTE PTR [rax+rcx*1]
    50a9:	48 8d 7d d8          	lea    rdi,[rbp-0x28]
    50ad:	e8 0e 15 00 00       	call   65c0 <_ZNSt7__cxx1112basic_stringIcSt11char_traitsIcESaIcEEpLEc>
    50b2:	eb 00                	jmp    50b4 <_Z14parse_env_pathB5cxx11v+0x104>
    50b4:	eb 00                	jmp    50b6 <_Z14parse_env_pathB5cxx11v+0x106>
        index++;
    50b6:	48 8b 45 b0          	mov    rax,QWORD PTR [rbp-0x50]
    50ba:	48 83 c0 01          	add    rax,0x1
    50be:	48 89 45 b0          	mov    QWORD PTR [rbp-0x50],rax
    while(path[index] != 0)
    50c2:	e9 55 ff ff ff       	jmp    501c <_Z14parse_env_pathB5cxx11v+0x6c>
    if(path_elem.length() > 0)
    50c7:	48 8d 7d d8          	lea    rdi,[rbp-0x28]
    50cb:	e8 b0 0f 00 00       	call   6080 <_ZNKSt7__cxx1112basic_stringIcSt11char_traitsIcESaIcEE6lengthEv>
    50d0:	48 83 f8 00          	cmp    rax,0x0
    50d4:	76 11                	jbe    50e7 <_Z14parse_env_pathB5cxx11v+0x137>
    50d6:	48 8b 7d 90          	mov    rdi,QWORD PTR [rbp-0x70]
    50da:	48 8d 75 d8          	lea    rsi,[rbp-0x28]
        paths.emplace_back(path_elem);
    50de:	e8 2d 14 00 00       	call   6510 <_ZNSt6vectorINSt7__cxx1112basic_stringIcSt11char_traitsIcESaIcEEESaIS5_EE12emplace_backIJRS5_EEES9_DpOT_>
    50e3:	eb 00                	jmp    50e5 <_Z14parse_env_pathB5cxx11v+0x135>
    }
    50e5:	eb 00                	jmp    50e7 <_Z14parse_env_pathB5cxx11v+0x137>
    return paths;
    50e7:	c6 45 cf 01          	mov    BYTE PTR [rbp-0x31],0x1
    50eb:	c7 45 bc 01 00 00 00 	mov    DWORD PTR [rbp-0x44],0x1
}
    50f2:	48 8d 7d d8          	lea    rdi,[rbp-0x28]
    50f6:	e8 55 10 00 00       	call   6150 <_ZNSt7__cxx1112basic_stringIcSt11char_traitsIcESaIcEED2Ev>
    50fb:	f6 45 cf 01          	test   BYTE PTR [rbp-0x31],0x1
    50ff:	75 09                	jne    510a <_Z14parse_env_pathB5cxx11v+0x15a>
    5101:	48 8b 7d 90          	mov    rdi,QWORD PTR [rbp-0x70]
    5105:	e8 f6 14 00 00       	call   6600 <_ZNSt6vectorINSt7__cxx1112basic_stringIcSt11char_traitsIcESaIcEEESaIS5_EED2Ev>
    510a:	64 48 8b 04 25 28 00 	mov    rax,QWORD PTR fs:0x28
    5111:	00 00 
    5113:	48 8b 4d f8          	mov    rcx,QWORD PTR [rbp-0x8]
    5117:	48 39 c8             	cmp    rax,rcx
    511a:	75 30                	jne    514c <_Z14parse_env_pathB5cxx11v+0x19c>
    511c:	48 8b 45 98          	mov    rax,QWORD PTR [rbp-0x68]
    5120:	48 81 c4 80 00 00 00 	add    rsp,0x80
    5127:	5d                   	pop    rbp
    5128:	c3                   	ret
    5129:	48 8b 45 a8          	mov    rax,QWORD PTR [rbp-0x58]
    512d:	48 89 45 88          	mov    QWORD PTR [rbp-0x78],rax
    5131:	64 48 8b 04 25 28 00 	mov    rax,QWORD PTR fs:0x28
    5138:	00 00 
    513a:	48 8b 4d f8          	mov    rcx,QWORD PTR [rbp-0x8]
    513e:	48 39 c8             	cmp    rax,rcx
    5141:	75 09                	jne    514c <_Z14parse_env_pathB5cxx11v+0x19c>
    5143:	48 8b 7d 88          	mov    rdi,QWORD PTR [rbp-0x78]
    5147:	e8 34 f3 ff ff       	call   4480 <_Unwind_Resume@plt>
    514c:	e8 7f f4 ff ff       	call   45d0 <__stack_chk_fail@plt>
    5151:	66 66 66 66 66 66 2e 	data16 data16 data16 data16 data16 cs nop WORD PTR [rax+rax*1+0x0]
    5158:	0f 1f 84 00 00 00 00 
    515f:	00 

0000000000005160 <_Z12exec_processR10TerminalIORKSt6vectorINSt7__cxx1112basic_stringIcSt11char_traitsIcESaIcEEESaIS7_EERK14TerminalStream>:
    }
    return res;
}

int exec_process(TerminalIO& terminal, const std::vector<std::string>& args, const TerminalStream& streams)
{
    5160:	f3 0f 1e fa          	endbr64
    5164:	55                   	push   rbp
    5165:	48 89 e5             	mov    rbp,rsp
    5168:	48 81 ec e0 01 00 00 	sub    rsp,0x1e0
    516f:	64 48 8b 04 25 28 00 	mov    rax,QWORD PTR fs:0x28
    5176:	00 00 
    5178:	48 89 45 f8          	mov    QWORD PTR [rbp-0x8],rax
    517c:	48 89 bd 58 ff ff ff 	mov    QWORD PTR [rbp-0xa8],rdi
    5183:	48 89 b5 50 ff ff ff 	mov    QWORD PTR [rbp-0xb0],rsi
    518a:	48 89 95 48 ff ff ff 	mov    QWORD PTR [rbp-0xb8],rdx
    std::vector<std::string> paths;
    5191:	48 8d 7d 80          	lea    rdi,[rbp-0x80]
    5195:	e8 c6 12 00 00       	call   6460 <_ZNSt6vectorINSt7__cxx1112basic_stringIcSt11char_traitsIcESaIcEEESaIS5_EEC2Ev>
    bool has_slash = false;
    519a:	c6 85 47 ff ff ff 00 	mov    BYTE PTR [rbp-0xb9],0x0
    for(size_t i = 0; i < args[0].length() && !has_slash; i++)
    51a1:	48 c7 85 38 ff ff ff 	mov    QWORD PTR [rbp-0xc8],0x0
    51a8:	00 00 00 00 
    51ac:	48 8b 85 38 ff ff ff 	mov    rax,QWORD PTR [rbp-0xc8]
    51b3:	48 89 85 b0 fe ff ff 	mov    QWORD PTR [rbp-0x150],rax
    51ba:	48 8b bd 50 ff ff ff 	mov    rdi,QWORD PTR [rbp-0xb0]
    51c1:	31 c0                	xor    eax,eax
    51c3:	89 c6                	mov    esi,eax
    51c5:	e8 d6 0c 00 00       	call   5ea0 <_ZNKSt6vectorINSt7__cxx1112basic_stringIcSt11char_traitsIcESaIcEEESaIS5_EEixEm>
    51ca:	48 89 c7             	mov    rdi,rax
    51cd:	e8 ae 0e 00 00       	call   6080 <_ZNKSt7__cxx1112basic_stringIcSt11char_traitsIcESaIcEE6lengthEv>
    51d2:	48 8b 8d b0 fe ff ff 	mov    rcx,QWORD PTR [rbp-0x150]
    51d9:	48 89 c2             	mov    rdx,rax
    51dc:	31 c0                	xor    eax,eax
    51de:	48 39 d1             	cmp    rcx,rdx
    51e1:	88 85 bb fe ff ff    	mov    BYTE PTR [rbp-0x145],al
    51e7:	73 0e                	jae    51f7 <_Z12exec_processR10TerminalIORKSt6vectorINSt7__cxx1112basic_stringIcSt11char_traitsIcESaIcEEESaIS7_EERK14TerminalStream+0x97>
    51e9:	8a 85 47 ff ff ff    	mov    al,BYTE PTR [rbp-0xb9]
    51ef:	34 ff                	xor    al,0xff
    51f1:	88 85 bb fe ff ff    	mov    BYTE PTR [rbp-0x145],al
    51f7:	8a 85 bb fe ff ff    	mov    al,BYTE PTR [rbp-0x145]
    51fd:	a8 01                	test   al,0x1
    51ff:	75 02                	jne    5203 <_Z12exec_processR10TerminalIORKSt6vectorINSt7__cxx1112basic_stringIcSt11char_traitsIcESaIcEEESaIS7_EERK14TerminalStream+0xa3>
    5201:	eb 47                	jmp    524a <_Z12exec_processR10TerminalIORKSt6vectorINSt7__cxx1112basic_stringIcSt11char_traitsIcESaIcEEESaIS7_EERK14TerminalStream+0xea>
    {
        if(args[0][i] == '/')
    5203:	48 8b bd 50 ff ff ff 	mov    rdi,QWORD PTR [rbp-0xb0]
    520a:	31 c0                	xor    eax,eax
    520c:	89 c6                	mov    esi,eax
    520e:	e8 8d 0c 00 00       	call   5ea0 <_ZNKSt6vectorINSt7__cxx1112basic_stringIcSt11char_traitsIcESaIcEEESaIS5_EEixEm>
    5213:	48 89 c7             	mov    rdi,rax
    5216:	48 8b b5 38 ff ff ff 	mov    rsi,QWORD PTR [rbp-0xc8]
    521d:	e8 4e 14 00 00       	call   6670 <_ZNKSt7__cxx1112basic_stringIcSt11char_traitsIcESaIcEEixEm>
    5222:	0f be 00             	movsx  eax,BYTE PTR [rax]
    5225:	83 f8 2f             	cmp    eax,0x2f
    5228:	75 07                	jne    5231 <_Z12exec_processR10TerminalIORKSt6vectorINSt7__cxx1112basic_stringIcSt11char_traitsIcESaIcEEESaIS7_EERK14TerminalStream+0xd1>
        {
            has_slash = true;
    522a:	c6 85 47 ff ff ff 01 	mov    BYTE PTR [rbp-0xb9],0x1
        }
    }
    5231:	eb 00                	jmp    5233 <_Z12exec_processR10TerminalIORKSt6vectorINSt7__cxx1112basic_stringIcSt11char_traitsIcESaIcEEESaIS7_EERK14TerminalStream+0xd3>
    for(size_t i = 0; i < args[0].length() && !has_slash; i++)
    5233:	48 8b 85 38 ff ff ff 	mov    rax,QWORD PTR [rbp-0xc8]
    523a:	48 83 c0 01          	add    rax,0x1
    523e:	48 89 85 38 ff ff ff 	mov    QWORD PTR [rbp-0xc8],rax
    5245:	e9 62 ff ff ff       	jmp    51ac <_Z12exec_processR10TerminalIORKSt6vectorINSt7__cxx1112basic_stringIcSt11char_traitsIcESaIcEEESaIS7_EERK14TerminalStream+0x4c>
    if(has_slash)
    524a:	f6 85 47 ff ff ff 01 	test   BYTE PTR [rbp-0xb9],0x1
    5251:	74 3e                	je     5291 <_Z12exec_processR10TerminalIORKSt6vectorINSt7__cxx1112basic_stringIcSt11char_traitsIcESaIcEEESaIS7_EERK14TerminalStream+0x131>
    {
        paths.emplace_back(args[0]);
    5253:	48 8b bd 50 ff ff ff 	mov    rdi,QWORD PTR [rbp-0xb0]
    525a:	31 c0                	xor    eax,eax
    525c:	89 c6                	mov    esi,eax
    525e:	e8 3d 0c 00 00       	call   5ea0 <_ZNKSt6vectorINSt7__cxx1112basic_stringIcSt11char_traitsIcESaIcEEESaIS5_EEixEm>
    5263:	48 89 c6             	mov    rsi,rax
    5266:	48 8d 7d 80          	lea    rdi,[rbp-0x80]
    526a:	e8 41 14 00 00       	call   66b0 <_ZNSt6vectorINSt7__cxx1112basic_stringIcSt11char_traitsIcESaIcEEESaIS5_EE12emplace_backIJRKS5_EEERS5_DpOT_>
    526f:	eb 00                	jmp    5271 <_Z12exec_processR10TerminalIORKSt6vectorINSt7__cxx1112basic_stringIcSt11char_traitsIcESaIcEEESaIS7_EERK14TerminalStream+0x111>
    }
    5271:	e9 0e 01 00 00       	jmp    5384 <_Z12exec_processR10TerminalIORKSt6vectorINSt7__cxx1112basic_stringIcSt11char_traitsIcESaIcEEESaIS7_EERK14TerminalStream+0x224>
    5276:	f3 0f 1e fa          	endbr64
    527a:	48 89 c1             	mov    rcx,rax
            return status;
        }
    }
    terminal.print_error("Unknown command '%s'\r\n", args[0].c_str());
    return -1;
}
    527d:	89 d0                	mov    eax,edx
    527f:	48 89 8d 30 ff ff ff 	mov    QWORD PTR [rbp-0xd0],rcx
    5286:	89 85 2c ff ff ff    	mov    DWORD PTR [rbp-0xd4],eax
    528c:	e9 35 08 00 00       	jmp    5ac6 <_Z12exec_processR10TerminalIORKSt6vectorINSt7__cxx1112basic_stringIcSt11char_traitsIcESaIcEEESaIS7_EERK14TerminalStream+0x966>
    5291:	48 8d bd 68 ff ff ff 	lea    rdi,[rbp-0x98]
        paths = parse_env_path();
    5298:	e8 13 fd ff ff       	call   4fb0 <_Z14parse_env_pathB5cxx11v>
    529d:	eb 00                	jmp    529f <_Z12exec_processR10TerminalIORKSt6vectorINSt7__cxx1112basic_stringIcSt11char_traitsIcESaIcEEESaIS7_EERK14TerminalStream+0x13f>
    529f:	48 8d 7d 80          	lea    rdi,[rbp-0x80]
    52a3:	48 8d b5 68 ff ff ff 	lea    rsi,[rbp-0x98]
    52aa:	e8 81 14 00 00       	call   6730 <_ZNSt6vectorINSt7__cxx1112basic_stringIcSt11char_traitsIcESaIcEEESaIS5_EEaSEOS7_>
    52af:	48 8d bd 68 ff ff ff 	lea    rdi,[rbp-0x98]
    52b6:	e8 45 13 00 00       	call   6600 <_ZNSt6vectorINSt7__cxx1112basic_stringIcSt11char_traitsIcESaIcEEESaIS5_EED2Ev>
        for(size_t i = 0; i < paths.size(); i++)
    52bb:	48 c7 85 20 ff ff ff 	mov    QWORD PTR [rbp-0xe0],0x0
    52c2:	00 00 00 00 
    52c6:	48 8b 85 20 ff ff ff 	mov    rax,QWORD PTR [rbp-0xe0]
    52cd:	48 89 85 a8 fe ff ff 	mov    QWORD PTR [rbp-0x158],rax
    52d4:	48 8d 7d 80          	lea    rdi,[rbp-0x80]
    52d8:	e8 a3 0b 00 00       	call   5e80 <_ZNKSt6vectorINSt7__cxx1112basic_stringIcSt11char_traitsIcESaIcEEESaIS5_EE4sizeEv>
    52dd:	48 89 c1             	mov    rcx,rax
    52e0:	48 8b 85 a8 fe ff ff 	mov    rax,QWORD PTR [rbp-0x158]
    52e7:	48 39 c8             	cmp    rax,rcx
    52ea:	0f 83 92 00 00 00    	jae    5382 <_Z12exec_processR10TerminalIORKSt6vectorINSt7__cxx1112basic_stringIcSt11char_traitsIcESaIcEEESaIS7_EERK14TerminalStream+0x222>
            if(paths[i].back() != '/')
    52f0:	48 8b b5 20 ff ff ff 	mov    rsi,QWORD PTR [rbp-0xe0]
    52f7:	48 8d 7d 80          	lea    rdi,[rbp-0x80]
    52fb:	e8 70 14 00 00       	call   6770 <_ZNSt6vectorINSt7__cxx1112basic_stringIcSt11char_traitsIcESaIcEEESaIS5_EEixEm>
    5300:	48 89 c7             	mov    rdi,rax
    5303:	e8 98 14 00 00       	call   67a0 <_ZNSt7__cxx1112basic_stringIcSt11char_traitsIcESaIcEE4backEv>
    5308:	0f be 00             	movsx  eax,BYTE PTR [rax]
    530b:	83 f8 2f             	cmp    eax,0x2f
    530e:	74 21                	je     5331 <_Z12exec_processR10TerminalIORKSt6vectorINSt7__cxx1112basic_stringIcSt11char_traitsIcESaIcEEESaIS7_EERK14TerminalStream+0x1d1>
                paths[i] += '/';
    5310:	48 8b b5 20 ff ff ff 	mov    rsi,QWORD PTR [rbp-0xe0]
    5317:	48 8d 7d 80          	lea    rdi,[rbp-0x80]
    531b:	e8 50 14 00 00       	call   6770 <_ZNSt6vectorINSt7__cxx1112basic_stringIcSt11char_traitsIcESaIcEEESaIS5_EEixEm>
    5320:	48 89 c7             	mov    rdi,rax
    5323:	be 2f 00 00 00       	mov    esi,0x2f
    5328:	e8 93 12 00 00       	call   65c0 <_ZNSt7__cxx1112basic_stringIcSt11char_traitsIcESaIcEEpLEc>
    532d:	eb 00                	jmp    532f <_Z12exec_processR10TerminalIORKSt6vectorINSt7__cxx1112basic_stringIcSt11char_traitsIcESaIcEEESaIS7_EERK14TerminalStream+0x1cf>
            }
    532f:	eb 00                	jmp    5331 <_Z12exec_processR10TerminalIORKSt6vectorINSt7__cxx1112basic_stringIcSt11char_traitsIcESaIcEEESaIS7_EERK14TerminalStream+0x1d1>
            paths[i] += args[0];
    5331:	48 8b bd 50 ff ff ff 	mov    rdi,QWORD PTR [rbp-0xb0]
    5338:	31 c0                	xor    eax,eax
    533a:	89 c6                	mov    esi,eax
    533c:	e8 5f 0b 00 00       	call   5ea0 <_ZNKSt6vectorINSt7__cxx1112basic_stringIcSt11char_traitsIcESaIcEEESaIS5_EEixEm>
    5341:	48 89 85 a0 fe ff ff 	mov    QWORD PTR [rbp-0x160],rax
    5348:	48 8b b5 20 ff ff ff 	mov    rsi,QWORD PTR [rbp-0xe0]
    534f:	48 8d 7d 80          	lea    rdi,[rbp-0x80]
    5353:	e8 18 14 00 00       	call   6770 <_ZNSt6vectorINSt7__cxx1112basic_stringIcSt11char_traitsIcESaIcEEESaIS5_EEixEm>
    5358:	48 8b b5 a0 fe ff ff 	mov    rsi,QWORD PTR [rbp-0x160]
    535f:	48 89 c7             	mov    rdi,rax
    5362:	e8 89 14 00 00       	call   67f0 <_ZNSt7__cxx1112basic_stringIcSt11char_traitsIcESaIcEEpLERKS4_>
    5367:	eb 00                	jmp    5369 <_Z12exec_processR10TerminalIORKSt6vectorINSt7__cxx1112basic_stringIcSt11char_traitsIcESaIcEEESaIS7_EERK14TerminalStream+0x209>
        }
    5369:	eb 00                	jmp    536b <_Z12exec_processR10TerminalIORKSt6vectorINSt7__cxx1112basic_stringIcSt11char_traitsIcESaIcEEESaIS7_EERK14TerminalStream+0x20b>
        for(size_t i = 0; i < paths.size(); i++)
    536b:	48 8b 85 20 ff ff ff 	mov    rax,QWORD PTR [rbp-0xe0]
    5372:	48 83 c0 01          	add    rax,0x1
    5376:	48 89 85 20 ff ff ff 	mov    QWORD PTR [rbp-0xe0],rax
    537d:	e9 44 ff ff ff       	jmp    52c6 <_Z12exec_processR10TerminalIORKSt6vectorINSt7__cxx1112basic_stringIcSt11char_traitsIcESaIcEEESaIS7_EERK14TerminalStream+0x166>
    5382:	eb 00                	jmp    5384 <_Z12exec_processR10TerminalIORKSt6vectorINSt7__cxx1112basic_stringIcSt11char_traitsIcESaIcEEESaIS7_EERK14TerminalStream+0x224>
    for(size_t i = 0; i < paths.size(); i++)
    5384:	48 c7 85 18 ff ff ff 	mov    QWORD PTR [rbp-0xe8],0x0
    538b:	00 00 00 00 
    538f:	48 8b 85 18 ff ff ff 	mov    rax,QWORD PTR [rbp-0xe8]
    5396:	48 89 85 98 fe ff ff 	mov    QWORD PTR [rbp-0x168],rax
    539d:	48 8d 7d 80          	lea    rdi,[rbp-0x80]
    53a1:	e8 da 0a 00 00       	call   5e80 <_ZNKSt6vectorINSt7__cxx1112basic_stringIcSt11char_traitsIcESaIcEEESaIS5_EE4sizeEv>
    53a6:	48 89 c1             	mov    rcx,rax
    53a9:	48 8b 85 98 fe ff ff 	mov    rax,QWORD PTR [rbp-0x168]
    53b0:	48 39 c8             	cmp    rax,rcx
    53b3:	0f 83 79 06 00 00    	jae    5a32 <_Z12exec_processR10TerminalIORKSt6vectorINSt7__cxx1112basic_stringIcSt11char_traitsIcESaIcEEESaIS7_EERK14TerminalStream+0x8d2>
        if(access(paths[i].c_str(), X_OK) == 0)
    53b9:	48 8b b5 18 ff ff ff 	mov    rsi,QWORD PTR [rbp-0xe8]
    53c0:	48 8d 7d 80          	lea    rdi,[rbp-0x80]
    53c4:	e8 a7 13 00 00       	call   6770 <_ZNSt6vectorINSt7__cxx1112basic_stringIcSt11char_traitsIcESaIcEEESaIS5_EEixEm>
    53c9:	48 89 c7             	mov    rdi,rax
    53cc:	e8 ff 0a 00 00       	call   5ed0 <_ZNKSt7__cxx1112basic_stringIcSt11char_traitsIcESaIcEE5c_strEv>
    53d1:	48 89 c7             	mov    rdi,rax
    53d4:	be 01 00 00 00       	mov    esi,0x1
    53d9:	e8 02 f4 ff ff       	call   47e0 <access@plt>
    53de:	83 f8 00             	cmp    eax,0x0
    53e1:	0f 85 32 06 00 00    	jne    5a19 <_Z12exec_processR10TerminalIORKSt6vectorINSt7__cxx1112basic_stringIcSt11char_traitsIcESaIcEEESaIS7_EERK14TerminalStream+0x8b9>
            char** arguments = get_argument_list(args);
    53e7:	48 8b bd 50 ff ff ff 	mov    rdi,QWORD PTR [rbp-0xb0]
    53ee:	e8 7d fa ff ff       	call   4e70 <_Z17get_argument_listRKSt6vectorINSt7__cxx1112basic_stringIcSt11char_traitsIcESaIcEEESaIS5_EE>
    53f3:	48 89 85 90 fe ff ff 	mov    QWORD PTR [rbp-0x170],rax
    53fa:	eb 00                	jmp    53fc <_Z12exec_processR10TerminalIORKSt6vectorINSt7__cxx1112basic_stringIcSt11char_traitsIcESaIcEEESaIS7_EERK14TerminalStream+0x29c>
    53fc:	48 8b 85 90 fe ff ff 	mov    rax,QWORD PTR [rbp-0x170]
    5403:	48 89 85 10 ff ff ff 	mov    QWORD PTR [rbp-0xf0],rax
            int status = 1;
    540a:	c7 85 64 ff ff ff 01 	mov    DWORD PTR [rbp-0x9c],0x1
    5411:	00 00 00 
            pid_t p_id = vfork();
    5414:	e8 87 f2 ff ff       	call   46a0 <vfork@plt>
    5419:	f3 0f 1e fa          	endbr64
    541d:	89 85 0c ff ff ff    	mov    DWORD PTR [rbp-0xf4],eax
            if(p_id == -1)
    5423:	83 bd 0c ff ff ff ff 	cmp    DWORD PTR [rbp-0xf4],0xffffffff
    542a:	75 1c                	jne    5448 <_Z12exec_processR10TerminalIORKSt6vectorINSt7__cxx1112basic_stringIcSt11char_traitsIcESaIcEEESaIS7_EERK14TerminalStream+0x2e8>
                terminal.print_error("Unable to create new processes\r\n");
    542c:	48 8b bd 58 ff ff ff 	mov    rdi,QWORD PTR [rbp-0xa8]
    5433:	48 8d 35 7b bc 00 00 	lea    rsi,[rip+0xbc7b]        # 110b5 <_IO_stdin_used+0xb5>
    543a:	31 c0                	xor    eax,eax
    543c:	e8 0f 3f 00 00       	call   9350 <_ZN10TerminalIO11print_errorEPKcz>
    5441:	eb 00                	jmp    5443 <_Z12exec_processR10TerminalIORKSt6vectorINSt7__cxx1112basic_stringIcSt11char_traitsIcESaIcEEESaIS7_EERK14TerminalStream+0x2e3>
            }
    5443:	e9 24 05 00 00       	jmp    596c <_Z12exec_processR10TerminalIORKSt6vectorINSt7__cxx1112basic_stringIcSt11char_traitsIcESaIcEEESaIS7_EERK14TerminalStream+0x80c>
            else if(p_id == 0)
    5448:	83 bd 0c ff ff ff 00 	cmp    DWORD PTR [rbp-0xf4],0x0
    544f:	0f 85 f7 04 00 00    	jne    594c <_Z12exec_processR10TerminalIORKSt6vectorINSt7__cxx1112basic_stringIcSt11char_traitsIcESaIcEEESaIS7_EERK14TerminalStream+0x7ec>
                terminal.disable_raw_mode();
    5455:	48 8b bd 58 ff ff ff 	mov    rdi,QWORD PTR [rbp-0xa8]
    545c:	e8 0f 3d 00 00       	call   9170 <_ZN10TerminalIO16disable_raw_modeEv>
    5461:	eb 00                	jmp    5463 <_Z12exec_processR10TerminalIORKSt6vectorINSt7__cxx1112basic_stringIcSt11char_traitsIcESaIcEEESaIS7_EERK14TerminalStream+0x303>
                bool stdin_valid = true;
    5463:	c6 85 0b ff ff ff 01 	mov    BYTE PTR [rbp-0xf5],0x1
                if(streams.stdin_path.length() > 0)
    546a:	48 8b bd 48 ff ff ff 	mov    rdi,QWORD PTR [rbp-0xb8]
    5471:	e8 0a 0c 00 00       	call   6080 <_ZNKSt7__cxx1112basic_stringIcSt11char_traitsIcESaIcEE6lengthEv>
    5476:	48 83 f8 00          	cmp    rax,0x0
    547a:	0f 86 ba 00 00 00    	jbe    553a <_Z12exec_processR10TerminalIORKSt6vectorINSt7__cxx1112basic_stringIcSt11char_traitsIcESaIcEEESaIS7_EERK14TerminalStream+0x3da>
                    std::string current_stdin = get_file_path(stdin);
    5480:	48 8b 05 39 1b 01 00 	mov    rax,QWORD PTR [rip+0x11b39]        # 16fc0 <stdin@GLIBC_2.2.5>
    5487:	48 8b 30             	mov    rsi,QWORD PTR [rax]
    548a:	48 8d 7d d8          	lea    rdi,[rbp-0x28]
    548e:	e8 6d 06 00 00       	call   5b00 <_ZL13get_file_pathB5cxx11P8_IO_FILE>
    5493:	eb 00                	jmp    5495 <_Z12exec_processR10TerminalIORKSt6vectorINSt7__cxx1112basic_stringIcSt11char_traitsIcESaIcEEESaIS7_EERK14TerminalStream+0x335>
                    if(current_stdin.length() == 0 || streams.stdin_path != current_stdin)
    5495:	48 8d 7d d8          	lea    rdi,[rbp-0x28]
    5499:	e8 e2 0b 00 00       	call   6080 <_ZNKSt7__cxx1112basic_stringIcSt11char_traitsIcESaIcEE6lengthEv>
    549e:	48 83 f8 00          	cmp    rax,0x0
    54a2:	74 18                	je     54bc <_Z12exec_processR10TerminalIORKSt6vectorINSt7__cxx1112basic_stringIcSt11char_traitsIcESaIcEEESaIS7_EERK14TerminalStream+0x35c>
    54a4:	48 8b bd 48 ff ff ff 	mov    rdi,QWORD PTR [rbp-0xb8]
    54ab:	48 8d 75 d8          	lea    rsi,[rbp-0x28]
    54af:	e8 6c 13 00 00       	call   6820 <_ZSteqIcSt11char_traitsIcESaIcEEbRKNSt7__cxx1112basic_stringIT_T0_T1_EESA_>
    54b4:	34 ff                	xor    al,0xff
    54b6:	a8 01                	test   al,0x1
    54b8:	75 02                	jne    54bc <_Z12exec_processR10TerminalIORKSt6vectorINSt7__cxx1112basic_stringIcSt11char_traitsIcESaIcEEESaIS7_EERK14TerminalStream+0x35c>
    54ba:	eb 75                	jmp    5531 <_Z12exec_processR10TerminalIORKSt6vectorINSt7__cxx1112basic_stringIcSt11char_traitsIcESaIcEEESaIS7_EERK14TerminalStream+0x3d1>
                        FILE* stdin_res = std::freopen(streams.stdin_path.c_str(), "r", stdin);    
    54bc:	48 8b bd 48 ff ff ff 	mov    rdi,QWORD PTR [rbp-0xb8]
    54c3:	e8 08 0a 00 00       	call   5ed0 <_ZNKSt7__cxx1112basic_stringIcSt11char_traitsIcESaIcEE5c_strEv>
    54c8:	48 89 c7             	mov    rdi,rax
    54cb:	48 8b 05 ee 1a 01 00 	mov    rax,QWORD PTR [rip+0x11aee]        # 16fc0 <stdin@GLIBC_2.2.5>
    54d2:	48 8b 10             	mov    rdx,QWORD PTR [rax]
    54d5:	48 8d 35 fa bb 00 00 	lea    rsi,[rip+0xbbfa]        # 110d6 <_IO_stdin_used+0xd6>
    54dc:	e8 df f0 ff ff       	call   45c0 <freopen@plt>
    54e1:	48 89 85 88 fe ff ff 	mov    QWORD PTR [rbp-0x178],rax
    54e8:	eb 00                	jmp    54ea <_Z12exec_processR10TerminalIORKSt6vectorINSt7__cxx1112basic_stringIcSt11char_traitsIcESaIcEEESaIS7_EERK14TerminalStream+0x38a>
    54ea:	48 8b 85 88 fe ff ff 	mov    rax,QWORD PTR [rbp-0x178]
    54f1:	48 89 85 00 ff ff ff 	mov    QWORD PTR [rbp-0x100],rax
                        stdin_valid = (stdin_res != NULL);
    54f8:	48 83 bd 00 ff ff ff 	cmp    QWORD PTR [rbp-0x100],0x0
    54ff:	00 
    5500:	0f 95 c0             	setne  al
    5503:	24 01                	and    al,0x1
    5505:	88 85 0b ff ff ff    	mov    BYTE PTR [rbp-0xf5],al
                    }
    550b:	eb 24                	jmp    5531 <_Z12exec_processR10TerminalIORKSt6vectorINSt7__cxx1112basic_stringIcSt11char_traitsIcESaIcEEESaIS7_EERK14TerminalStream+0x3d1>
    550d:	f3 0f 1e fa          	endbr64
    5511:	48 89 c1             	mov    rcx,rax
}
    5514:	89 d0                	mov    eax,edx
    5516:	48 89 8d 30 ff ff ff 	mov    QWORD PTR [rbp-0xd0],rcx
    551d:	89 85 2c ff ff ff    	mov    DWORD PTR [rbp-0xd4],eax
                }
    5523:	48 8d 7d d8          	lea    rdi,[rbp-0x28]
    5527:	e8 24 0c 00 00       	call   6150 <_ZNSt7__cxx1112basic_stringIcSt11char_traitsIcESaIcEED2Ev>
    552c:	e9 95 05 00 00       	jmp    5ac6 <_Z12exec_processR10TerminalIORKSt6vectorINSt7__cxx1112basic_stringIcSt11char_traitsIcESaIcEEESaIS7_EERK14TerminalStream+0x966>
    5531:	48 8d 7d d8          	lea    rdi,[rbp-0x28]
    5535:	e8 16 0c 00 00       	call   6150 <_ZNSt7__cxx1112basic_stringIcSt11char_traitsIcESaIcEED2Ev>
                bool stdout_valid = true;
    553a:	c6 85 ff fe ff ff 01 	mov    BYTE PTR [rbp-0x101],0x1
                if(streams.stdout_path.length() > 0)
    5541:	48 8b bd 48 ff ff ff 	mov    rdi,QWORD PTR [rbp-0xb8]
    5548:	48 83 c7 20          	add    rdi,0x20
    554c:	e8 2f 0b 00 00       	call   6080 <_ZNKSt7__cxx1112basic_stringIcSt11char_traitsIcESaIcEE6lengthEv>
    5551:	48 83 f8 00          	cmp    rax,0x0
    5555:	0f 86 58 01 00 00    	jbe    56b3 <_Z12exec_processR10TerminalIORKSt6vectorINSt7__cxx1112basic_stringIcSt11char_traitsIcESaIcEEESaIS7_EERK14TerminalStream+0x553>
                    std::string current_stdout = get_file_path(stdout);
    555b:	48 8b 05 36 1a 01 00 	mov    rax,QWORD PTR [rip+0x11a36]        # 16f98 <stdout@GLIBC_2.2.5>
    5562:	48 8b 30             	mov    rsi,QWORD PTR [rax]
    5565:	48 8d 7d b8          	lea    rdi,[rbp-0x48]
    5569:	e8 92 05 00 00       	call   5b00 <_ZL13get_file_pathB5cxx11P8_IO_FILE>
    556e:	eb 00                	jmp    5570 <_Z12exec_processR10TerminalIORKSt6vectorINSt7__cxx1112basic_stringIcSt11char_traitsIcESaIcEEESaIS7_EERK14TerminalStream+0x410>
                    if(streams.stdout_append)
    5570:	48 8b 85 48 ff ff ff 	mov    rax,QWORD PTR [rbp-0xb8]
    5577:	f6 40 40 01          	test   BYTE PTR [rax+0x40],0x1
    557b:	0f 84 a9 00 00 00    	je     562a <_Z12exec_processR10TerminalIORKSt6vectorINSt7__cxx1112basic_stringIcSt11char_traitsIcESaIcEEESaIS7_EERK14TerminalStream+0x4ca>
                        if(current_stdout.length() == 0 || streams.stdout_path != current_stdout)
    5581:	48 8d 7d b8          	lea    rdi,[rbp-0x48]
    5585:	e8 f6 0a 00 00       	call   6080 <_ZNKSt7__cxx1112basic_stringIcSt11char_traitsIcESaIcEE6lengthEv>
    558a:	48 83 f8 00          	cmp    rax,0x0
    558e:	74 1c                	je     55ac <_Z12exec_processR10TerminalIORKSt6vectorINSt7__cxx1112basic_stringIcSt11char_traitsIcESaIcEEESaIS7_EERK14TerminalStream+0x44c>
    5590:	48 8b bd 48 ff ff ff 	mov    rdi,QWORD PTR [rbp-0xb8]
    5597:	48 83 c7 20          	add    rdi,0x20
    559b:	48 8d 75 b8          	lea    rsi,[rbp-0x48]
    559f:	e8 7c 12 00 00       	call   6820 <_ZSteqIcSt11char_traitsIcESaIcEEbRKNSt7__cxx1112basic_stringIT_T0_T1_EESA_>
    55a4:	34 ff                	xor    al,0xff
    55a6:	a8 01                	test   al,0x1
    55a8:	75 02                	jne    55ac <_Z12exec_processR10TerminalIORKSt6vectorINSt7__cxx1112basic_stringIcSt11char_traitsIcESaIcEEESaIS7_EERK14TerminalStream+0x44c>
    55aa:	eb 79                	jmp    5625 <_Z12exec_processR10TerminalIORKSt6vectorINSt7__cxx1112basic_stringIcSt11char_traitsIcESaIcEEESaIS7_EERK14TerminalStream+0x4c5>
                            FILE* stdout_res = freopen(streams.stdout_path.c_str(), "a", stdout);
    55ac:	48 8b bd 48 ff ff ff 	mov    rdi,QWORD PTR [rbp-0xb8]
    55b3:	48 83 c7 20          	add    rdi,0x20
    55b7:	e8 14 09 00 00       	call   5ed0 <_ZNKSt7__cxx1112basic_stringIcSt11char_traitsIcESaIcEE5c_strEv>
    55bc:	48 89 c7             	mov    rdi,rax
    55bf:	48 8b 05 d2 19 01 00 	mov    rax,QWORD PTR [rip+0x119d2]        # 16f98 <stdout@GLIBC_2.2.5>
    55c6:	48 8b 10             	mov    rdx,QWORD PTR [rax]
    55c9:	48 8d 35 08 bb 00 00 	lea    rsi,[rip+0xbb08]        # 110d8 <_IO_stdin_used+0xd8>
    55d0:	e8 eb ef ff ff       	call   45c0 <freopen@plt>
    55d5:	48 89 85 80 fe ff ff 	mov    QWORD PTR [rbp-0x180],rax
    55dc:	eb 00                	jmp    55de <_Z12exec_processR10TerminalIORKSt6vectorINSt7__cxx1112basic_stringIcSt11char_traitsIcESaIcEEESaIS7_EERK14TerminalStream+0x47e>
    55de:	48 8b 85 80 fe ff ff 	mov    rax,QWORD PTR [rbp-0x180]
    55e5:	48 89 85 f0 fe ff ff 	mov    QWORD PTR [rbp-0x110],rax
                            stdout_valid = (stdout_res != NULL);
    55ec:	48 83 bd f0 fe ff ff 	cmp    QWORD PTR [rbp-0x110],0x0
    55f3:	00 
    55f4:	0f 95 c0             	setne  al
    55f7:	24 01                	and    al,0x1
    55f9:	88 85 ff fe ff ff    	mov    BYTE PTR [rbp-0x101],al
                        }
    55ff:	eb 24                	jmp    5625 <_Z12exec_processR10TerminalIORKSt6vectorINSt7__cxx1112basic_stringIcSt11char_traitsIcESaIcEEESaIS7_EERK14TerminalStream+0x4c5>
    5601:	f3 0f 1e fa          	endbr64
    5605:	48 89 c1             	mov    rcx,rax
}
    5608:	89 d0                	mov    eax,edx
    560a:	48 89 8d 30 ff ff ff 	mov    QWORD PTR [rbp-0xd0],rcx
    5611:	89 85 2c ff ff ff    	mov    DWORD PTR [rbp-0xd4],eax
                }
    5617:	48 8d 7d b8          	lea    rdi,[rbp-0x48]
    561b:	e8 30 0b 00 00       	call   6150 <_ZNSt7__cxx1112basic_stringIcSt11char_traitsIcESaIcEED2Ev>
    5620:	e9 a1 04 00 00       	jmp    5ac6 <_Z12exec_processR10TerminalIORKSt6vectorINSt7__cxx1112basic_stringIcSt11char_traitsIcESaIcEEESaIS7_EERK14TerminalStream+0x966>
                    }
    5625:	e9 80 00 00 00       	jmp    56aa <_Z12exec_processR10TerminalIORKSt6vectorINSt7__cxx1112basic_stringIcSt11char_traitsIcESaIcEEESaIS7_EERK14TerminalStream+0x54a>
                        if(current_stdout.length() == 0 || streams.stdout_path != current_stdout)
    562a:	48 8d 7d b8          	lea    rdi,[rbp-0x48]
    562e:	e8 4d 0a 00 00       	call   6080 <_ZNKSt7__cxx1112basic_stringIcSt11char_traitsIcESaIcEE6lengthEv>
    5633:	48 83 f8 00          	cmp    rax,0x0
    5637:	74 1c                	je     5655 <_Z12exec_processR10TerminalIORKSt6vectorINSt7__cxx1112basic_stringIcSt11char_traitsIcESaIcEEESaIS7_EERK14TerminalStream+0x4f5>
    5639:	48 8b bd 48 ff ff ff 	mov    rdi,QWORD PTR [rbp-0xb8]
    5640:	48 83 c7 20          	add    rdi,0x20
    5644:	48 8d 75 b8          	lea    rsi,[rbp-0x48]
    5648:	e8 d3 11 00 00       	call   6820 <_ZSteqIcSt11char_traitsIcESaIcEEbRKNSt7__cxx1112basic_stringIT_T0_T1_EESA_>
    564d:	34 ff                	xor    al,0xff
    564f:	a8 01                	test   al,0x1
    5651:	75 02                	jne    5655 <_Z12exec_processR10TerminalIORKSt6vectorINSt7__cxx1112basic_stringIcSt11char_traitsIcESaIcEEESaIS7_EERK14TerminalStream+0x4f5>
    5653:	eb 53                	jmp    56a8 <_Z12exec_processR10TerminalIORKSt6vectorINSt7__cxx1112basic_stringIcSt11char_traitsIcESaIcEEESaIS7_EERK14TerminalStream+0x548>
                            FILE* stdout_res = freopen(streams.stdout_path.c_str(), "w", stdout);    
    5655:	48 8b bd 48 ff ff ff 	mov    rdi,QWORD PTR [rbp-0xb8]
    565c:	48 83 c7 20          	add    rdi,0x20
    5660:	e8 6b 08 00 00       	call   5ed0 <_ZNKSt7__cxx1112basic_stringIcSt11char_traitsIcESaIcEE5c_strEv>
    5665:	48 89 c7             	mov    rdi,rax
    5668:	48 8b 05 29 19 01 00 	mov    rax,QWORD PTR [rip+0x11929]        # 16f98 <stdout@GLIBC_2.2.5>
    566f:	48 8b 10             	mov    rdx,QWORD PTR [rax]
    5672:	48 8d 35 61 ba 00 00 	lea    rsi,[rip+0xba61]        # 110da <_IO_stdin_used+0xda>
    5679:	e8 42 ef ff ff       	call   45c0 <freopen@plt>
    567e:	48 89 85 78 fe ff ff 	mov    QWORD PTR [rbp-0x188],rax
    5685:	eb 00                	jmp    5687 <_Z12exec_processR10TerminalIORKSt6vectorINSt7__cxx1112basic_stringIcSt11char_traitsIcESaIcEEESaIS7_EERK14TerminalStream+0x527>
    5687:	48 8b 85 78 fe ff ff 	mov    rax,QWORD PTR [rbp-0x188]
    568e:	48 89 85 e8 fe ff ff 	mov    QWORD PTR [rbp-0x118],rax
                            stdout_valid = (stdout_res != NULL);
    5695:	48 83 bd e8 fe ff ff 	cmp    QWORD PTR [rbp-0x118],0x0
    569c:	00 
    569d:	0f 95 c0             	setne  al
    56a0:	24 01                	and    al,0x1
    56a2:	88 85 ff fe ff ff    	mov    BYTE PTR [rbp-0x101],al
    56a8:	eb 00                	jmp    56aa <_Z12exec_processR10TerminalIORKSt6vectorINSt7__cxx1112basic_stringIcSt11char_traitsIcESaIcEEESaIS7_EERK14TerminalStream+0x54a>
                }
    56aa:	48 8d 7d b8          	lea    rdi,[rbp-0x48]
    56ae:	e8 9d 0a 00 00       	call   6150 <_ZNSt7__cxx1112basic_stringIcSt11char_traitsIcESaIcEED2Ev>
                bool stderr_valid = true;
    56b3:	c6 85 e7 fe ff ff 01 	mov    BYTE PTR [rbp-0x119],0x1
                if(streams.stderr_path.length() > 0)
    56ba:	48 8b bd 48 ff ff ff 	mov    rdi,QWORD PTR [rbp-0xb8]
    56c1:	48 83 c7 48          	add    rdi,0x48
    56c5:	e8 b6 09 00 00       	call   6080 <_ZNKSt7__cxx1112basic_stringIcSt11char_traitsIcESaIcEE6lengthEv>
    56ca:	48 83 f8 00          	cmp    rax,0x0
    56ce:	0f 86 58 01 00 00    	jbe    582c <_Z12exec_processR10TerminalIORKSt6vectorINSt7__cxx1112basic_stringIcSt11char_traitsIcESaIcEEESaIS7_EERK14TerminalStream+0x6cc>
                    std::string current_stderr = get_file_path(stdout);
    56d4:	48 8b 05 bd 18 01 00 	mov    rax,QWORD PTR [rip+0x118bd]        # 16f98 <stdout@GLIBC_2.2.5>
    56db:	48 8b 30             	mov    rsi,QWORD PTR [rax]
    56de:	48 8d 7d 98          	lea    rdi,[rbp-0x68]
    56e2:	e8 19 04 00 00       	call   5b00 <_ZL13get_file_pathB5cxx11P8_IO_FILE>
    56e7:	eb 00                	jmp    56e9 <_Z12exec_processR10TerminalIORKSt6vectorINSt7__cxx1112basic_stringIcSt11char_traitsIcESaIcEEESaIS7_EERK14TerminalStream+0x589>
                    if(streams.stderr_append)
    56e9:	48 8b 85 48 ff ff ff 	mov    rax,QWORD PTR [rbp-0xb8]
    56f0:	f6 40 68 01          	test   BYTE PTR [rax+0x68],0x1
    56f4:	0f 84 a9 00 00 00    	je     57a3 <_Z12exec_processR10TerminalIORKSt6vectorINSt7__cxx1112basic_stringIcSt11char_traitsIcESaIcEEESaIS7_EERK14TerminalStream+0x643>
                        if(current_stderr.length() == 0 || streams.stderr_path != current_stderr)
    56fa:	48 8d 7d 98          	lea    rdi,[rbp-0x68]
    56fe:	e8 7d 09 00 00       	call   6080 <_ZNKSt7__cxx1112basic_stringIcSt11char_traitsIcESaIcEE6lengthEv>
    5703:	48 83 f8 00          	cmp    rax,0x0
    5707:	74 1c                	je     5725 <_Z12exec_processR10TerminalIORKSt6vectorINSt7__cxx1112basic_stringIcSt11char_traitsIcESaIcEEESaIS7_EERK14TerminalStream+0x5c5>
    5709:	48 8b bd 48 ff ff ff 	mov    rdi,QWORD PTR [rbp-0xb8]
    5710:	48 83 c7 48          	add    rdi,0x48
    5714:	48 8d 75 98          	lea    rsi,[rbp-0x68]
    5718:	e8 03 11 00 00       	call   6820 <_ZSteqIcSt11char_traitsIcESaIcEEbRKNSt7__cxx1112basic_stringIT_T0_T1_EESA_>
    571d:	34 ff                	xor    al,0xff
    571f:	a8 01                	test   al,0x1
    5721:	75 02                	jne    5725 <_Z12exec_processR10TerminalIORKSt6vectorINSt7__cxx1112basic_stringIcSt11char_traitsIcESaIcEEESaIS7_EERK14TerminalStream+0x5c5>
    5723:	eb 79                	jmp    579e <_Z12exec_processR10TerminalIORKSt6vectorINSt7__cxx1112basic_stringIcSt11char_traitsIcESaIcEEESaIS7_EERK14TerminalStream+0x63e>
                            FILE* stderr_res = freopen(streams.stderr_path.c_str(), "a", stderr);
    5725:	48 8b bd 48 ff ff ff 	mov    rdi,QWORD PTR [rbp-0xb8]
    572c:	48 83 c7 48          	add    rdi,0x48
    5730:	e8 9b 07 00 00       	call   5ed0 <_ZNKSt7__cxx1112basic_stringIcSt11char_traitsIcESaIcEE5c_strEv>
    5735:	48 89 c7             	mov    rdi,rax
    5738:	48 8b 05 91 18 01 00 	mov    rax,QWORD PTR [rip+0x11891]        # 16fd0 <stderr@GLIBC_2.2.5>
    573f:	48 8b 10             	mov    rdx,QWORD PTR [rax]
    5742:	48 8d 35 8f b9 00 00 	lea    rsi,[rip+0xb98f]        # 110d8 <_IO_stdin_used+0xd8>
    5749:	e8 72 ee ff ff       	call   45c0 <freopen@plt>
    574e:	48 89 85 70 fe ff ff 	mov    QWORD PTR [rbp-0x190],rax
    5755:	eb 00                	jmp    5757 <_Z12exec_processR10TerminalIORKSt6vectorINSt7__cxx1112basic_stringIcSt11char_traitsIcESaIcEEESaIS7_EERK14TerminalStream+0x5f7>
    5757:	48 8b 85 70 fe ff ff 	mov    rax,QWORD PTR [rbp-0x190]
    575e:	48 89 85 d8 fe ff ff 	mov    QWORD PTR [rbp-0x128],rax
                            stderr_valid = (stderr_res != NULL);
    5765:	48 83 bd d8 fe ff ff 	cmp    QWORD PTR [rbp-0x128],0x0
    576c:	00 
    576d:	0f 95 c0             	setne  al
    5770:	24 01                	and    al,0x1
    5772:	88 85 e7 fe ff ff    	mov    BYTE PTR [rbp-0x119],al
                        }
    5778:	eb 24                	jmp    579e <_Z12exec_processR10TerminalIORKSt6vectorINSt7__cxx1112basic_stringIcSt11char_traitsIcESaIcEEESaIS7_EERK14TerminalStream+0x63e>
    577a:	f3 0f 1e fa          	endbr64
    577e:	48 89 c1             	mov    rcx,rax
}
    5781:	89 d0                	mov    eax,edx
    5783:	48 89 8d 30 ff ff ff 	mov    QWORD PTR [rbp-0xd0],rcx
    578a:	89 85 2c ff ff ff    	mov    DWORD PTR [rbp-0xd4],eax
                }
    5790:	48 8d 7d 98          	lea    rdi,[rbp-0x68]
    5794:	e8 b7 09 00 00       	call   6150 <_ZNSt7__cxx1112basic_stringIcSt11char_traitsIcESaIcEED2Ev>
    5799:	e9 28 03 00 00       	jmp    5ac6 <_Z12exec_processR10TerminalIORKSt6vectorINSt7__cxx1112basic_stringIcSt11char_traitsIcESaIcEEESaIS7_EERK14TerminalStream+0x966>
                    }
    579e:	e9 80 00 00 00       	jmp    5823 <_Z12exec_processR10TerminalIORKSt6vectorINSt7__cxx1112basic_stringIcSt11char_traitsIcESaIcEEESaIS7_EERK14TerminalStream+0x6c3>
                        if(current_stderr.length() == 0 || streams.stderr_path != current_stderr)
    57a3:	48 8d 7d 98          	lea    rdi,[rbp-0x68]
    57a7:	e8 d4 08 00 00       	call   6080 <_ZNKSt7__cxx1112basic_stringIcSt11char_traitsIcESaIcEE6lengthEv>
    57ac:	48 83 f8 00          	cmp    rax,0x0
    57b0:	74 1c                	je     57ce <_Z12exec_processR10TerminalIORKSt6vectorINSt7__cxx1112basic_stringIcSt11char_traitsIcESaIcEEESaIS7_EERK14TerminalStream+0x66e>
    57b2:	48 8b bd 48 ff ff ff 	mov    rdi,QWORD PTR [rbp-0xb8]
    57b9:	48 83 c7 48          	add    rdi,0x48
    57bd:	48 8d 75 98          	lea    rsi,[rbp-0x68]
    57c1:	e8 5a 10 00 00       	call   6820 <_ZSteqIcSt11char_traitsIcESaIcEEbRKNSt7__cxx1112basic_stringIT_T0_T1_EESA_>
    57c6:	34 ff                	xor    al,0xff
    57c8:	a8 01                	test   al,0x1
    57ca:	75 02                	jne    57ce <_Z12exec_processR10TerminalIORKSt6vectorINSt7__cxx1112basic_stringIcSt11char_traitsIcESaIcEEESaIS7_EERK14TerminalStream+0x66e>
    57cc:	eb 53                	jmp    5821 <_Z12exec_processR10TerminalIORKSt6vectorINSt7__cxx1112basic_stringIcSt11char_traitsIcESaIcEEESaIS7_EERK14TerminalStream+0x6c1>
                            FILE* stderr_res = freopen(streams.stderr_path.c_str(), "w", stderr);    
    57ce:	48 8b bd 48 ff ff ff 	mov    rdi,QWORD PTR [rbp-0xb8]
    57d5:	48 83 c7 48          	add    rdi,0x48
    57d9:	e8 f2 06 00 00       	call   5ed0 <_ZNKSt7__cxx1112basic_stringIcSt11char_traitsIcESaIcEE5c_strEv>
    57de:	48 89 c7             	mov    rdi,rax
    57e1:	48 8b 05 e8 17 01 00 	mov    rax,QWORD PTR [rip+0x117e8]        # 16fd0 <stderr@GLIBC_2.2.5>
    57e8:	48 8b 10             	mov    rdx,QWORD PTR [rax]
    57eb:	48 8d 35 e8 b8 00 00 	lea    rsi,[rip+0xb8e8]        # 110da <_IO_stdin_used+0xda>
    57f2:	e8 c9 ed ff ff       	call   45c0 <freopen@plt>
    57f7:	48 89 85 68 fe ff ff 	mov    QWORD PTR [rbp-0x198],rax
    57fe:	eb 00                	jmp    5800 <_Z12exec_processR10TerminalIORKSt6vectorINSt7__cxx1112basic_stringIcSt11char_traitsIcESaIcEEESaIS7_EERK14TerminalStream+0x6a0>
    5800:	48 8b 85 68 fe ff ff 	mov    rax,QWORD PTR [rbp-0x198]
    5807:	48 89 85 d0 fe ff ff 	mov    QWORD PTR [rbp-0x130],rax
                            stderr_valid = (stderr_res != NULL);
    580e:	48 83 bd d0 fe ff ff 	cmp    QWORD PTR [rbp-0x130],0x0
    5815:	00 
    5816:	0f 95 c0             	setne  al
    5819:	24 01                	and    al,0x1
    581b:	88 85 e7 fe ff ff    	mov    BYTE PTR [rbp-0x119],al
    5821:	eb 00                	jmp    5823 <_Z12exec_processR10TerminalIORKSt6vectorINSt7__cxx1112basic_stringIcSt11char_traitsIcESaIcEEESaIS7_EERK14TerminalStream+0x6c3>
                }
    5823:	48 8d 7d 98          	lea    rdi,[rbp-0x68]
    5827:	e8 24 09 00 00       	call   6150 <_ZNSt7__cxx1112basic_stringIcSt11char_traitsIcESaIcEED2Ev>
                if(!stdin_valid || !stdout_valid || !stderr_valid)
    582c:	f6 85 0b ff ff ff 01 	test   BYTE PTR [rbp-0xf5],0x1
    5833:	74 12                	je     5847 <_Z12exec_processR10TerminalIORKSt6vectorINSt7__cxx1112basic_stringIcSt11char_traitsIcESaIcEEESaIS7_EERK14TerminalStream+0x6e7>
    5835:	f6 85 ff fe ff ff 01 	test   BYTE PTR [rbp-0x101],0x1
    583c:	74 09                	je     5847 <_Z12exec_processR10TerminalIORKSt6vectorINSt7__cxx1112basic_stringIcSt11char_traitsIcESaIcEEESaIS7_EERK14TerminalStream+0x6e7>
    583e:	f6 85 e7 fe ff ff 01 	test   BYTE PTR [rbp-0x119],0x1
    5845:	75 6c                	jne    58b3 <_Z12exec_processR10TerminalIORKSt6vectorINSt7__cxx1112basic_stringIcSt11char_traitsIcESaIcEEESaIS7_EERK14TerminalStream+0x753>
                    terminal.print_error("Unable to redirect child stdin, stdout and stderr\r\n");
    5847:	48 8b bd 58 ff ff ff 	mov    rdi,QWORD PTR [rbp-0xa8]
    584e:	48 8d 35 87 b8 00 00 	lea    rsi,[rip+0xb887]        # 110dc <_IO_stdin_used+0xdc>
    5855:	31 c0                	xor    eax,eax
    5857:	e8 f4 3a 00 00       	call   9350 <_ZN10TerminalIO11print_errorEPKcz>
    585c:	eb 00                	jmp    585e <_Z12exec_processR10TerminalIORKSt6vectorINSt7__cxx1112basic_stringIcSt11char_traitsIcESaIcEEESaIS7_EERK14TerminalStream+0x6fe>
                    fclose(stdin);
    585e:	48 8b 05 5b 17 01 00 	mov    rax,QWORD PTR [rip+0x1175b]        # 16fc0 <stdin@GLIBC_2.2.5>
    5865:	48 8b 38             	mov    rdi,QWORD PTR [rax]
    5868:	e8 13 ed ff ff       	call   4580 <fclose@plt>
    586d:	eb 00                	jmp    586f <_Z12exec_processR10TerminalIORKSt6vectorINSt7__cxx1112basic_stringIcSt11char_traitsIcESaIcEEESaIS7_EERK14TerminalStream+0x70f>
                    fclose(stdout);
    586f:	48 8b 05 22 17 01 00 	mov    rax,QWORD PTR [rip+0x11722]        # 16f98 <stdout@GLIBC_2.2.5>
    5876:	48 8b 38             	mov    rdi,QWORD PTR [rax]
    5879:	e8 02 ed ff ff       	call   4580 <fclose@plt>
    587e:	eb 00                	jmp    5880 <_Z12exec_processR10TerminalIORKSt6vectorINSt7__cxx1112basic_stringIcSt11char_traitsIcESaIcEEESaIS7_EERK14TerminalStream+0x720>
                    fclose(stderr);
    5880:	48 8b 05 49 17 01 00 	mov    rax,QWORD PTR [rip+0x11749]        # 16fd0 <stderr@GLIBC_2.2.5>
    5887:	48 8b 38             	mov    rdi,QWORD PTR [rax]
    588a:	e8 f1 ec ff ff       	call   4580 <fclose@plt>
    588f:	eb 00                	jmp    5891 <_Z12exec_processR10TerminalIORKSt6vectorINSt7__cxx1112basic_stringIcSt11char_traitsIcESaIcEEESaIS7_EERK14TerminalStream+0x731>
                    _exit(1);
    5891:	64 48 8b 04 25 28 00 	mov    rax,QWORD PTR fs:0x28
    5898:	00 00 
    589a:	48 8b 4d f8          	mov    rcx,QWORD PTR [rbp-0x8]
    589e:	48 39 c8             	cmp    rax,rcx
    58a1:	0f 85 54 02 00 00    	jne    5afb <_Z12exec_processR10TerminalIORKSt6vectorINSt7__cxx1112basic_stringIcSt11char_traitsIcESaIcEEESaIS7_EERK14TerminalStream+0x99b>
    58a7:	bf 01 00 00 00       	mov    edi,0x1
    58ac:	e8 0f ef ff ff       	call   47c0 <_exit@plt>
    58b1:	eb 00                	jmp    58b3 <_Z12exec_processR10TerminalIORKSt6vectorINSt7__cxx1112basic_stringIcSt11char_traitsIcESaIcEEESaIS7_EERK14TerminalStream+0x753>
                int res = execve(paths[i].c_str(), arguments, __environ);
    58b3:	48 8b b5 18 ff ff ff 	mov    rsi,QWORD PTR [rbp-0xe8]
    58ba:	48 8d 7d 80          	lea    rdi,[rbp-0x80]
    58be:	e8 ad 0e 00 00       	call   6770 <_ZNSt6vectorINSt7__cxx1112basic_stringIcSt11char_traitsIcESaIcEEESaIS5_EEixEm>
    58c3:	48 89 c7             	mov    rdi,rax
    58c6:	e8 05 06 00 00       	call   5ed0 <_ZNKSt7__cxx1112basic_stringIcSt11char_traitsIcESaIcEE5c_strEv>
    58cb:	48 89 c7             	mov    rdi,rax
    58ce:	48 8b b5 10 ff ff ff 	mov    rsi,QWORD PTR [rbp-0xf0]
    58d5:	48 8b 05 c4 16 01 00 	mov    rax,QWORD PTR [rip+0x116c4]        # 16fa0 <__environ@GLIBC_2.2.5>
    58dc:	48 8b 10             	mov    rdx,QWORD PTR [rax]
    58df:	e8 0c ef ff ff       	call   47f0 <execve@plt>
    58e4:	89 85 cc fe ff ff    	mov    DWORD PTR [rbp-0x134],eax
                fclose(stdin);
    58ea:	48 8b 05 cf 16 01 00 	mov    rax,QWORD PTR [rip+0x116cf]        # 16fc0 <stdin@GLIBC_2.2.5>
    58f1:	48 8b 38             	mov    rdi,QWORD PTR [rax]
    58f4:	e8 87 ec ff ff       	call   4580 <fclose@plt>
    58f9:	eb 00                	jmp    58fb <_Z12exec_processR10TerminalIORKSt6vectorINSt7__cxx1112basic_stringIcSt11char_traitsIcESaIcEEESaIS7_EERK14TerminalStream+0x79b>
                fclose(stdout);
    58fb:	48 8b 05 96 16 01 00 	mov    rax,QWORD PTR [rip+0x11696]        # 16f98 <stdout@GLIBC_2.2.5>
    5902:	48 8b 38             	mov    rdi,QWORD PTR [rax]
    5905:	e8 76 ec ff ff       	call   4580 <fclose@plt>
    590a:	eb 00                	jmp    590c <_Z12exec_processR10TerminalIORKSt6vectorINSt7__cxx1112basic_stringIcSt11char_traitsIcESaIcEEESaIS7_EERK14TerminalStream+0x7ac>
                fclose(stderr);
    590c:	48 8b 05 bd 16 01 00 	mov    rax,QWORD PTR [rip+0x116bd]        # 16fd0 <stderr@GLIBC_2.2.5>
    5913:	48 8b 38             	mov    rdi,QWORD PTR [rax]
    5916:	e8 65 ec ff ff       	call   4580 <fclose@plt>
    591b:	eb 00                	jmp    591d <_Z12exec_processR10TerminalIORKSt6vectorINSt7__cxx1112basic_stringIcSt11char_traitsIcESaIcEEESaIS7_EERK14TerminalStream+0x7bd>
                _exit(res);
    591d:	8b 85 cc fe ff ff    	mov    eax,DWORD PTR [rbp-0x134]
    5923:	89 85 64 fe ff ff    	mov    DWORD PTR [rbp-0x19c],eax
    5929:	64 48 8b 04 25 28 00 	mov    rax,QWORD PTR fs:0x28
    5930:	00 00 
    5932:	48 8b 4d f8          	mov    rcx,QWORD PTR [rbp-0x8]
    5936:	48 39 c8             	cmp    rax,rcx
    5939:	0f 85 bc 01 00 00    	jne    5afb <_Z12exec_processR10TerminalIORKSt6vectorINSt7__cxx1112basic_stringIcSt11char_traitsIcESaIcEEESaIS7_EERK14TerminalStream+0x99b>
    593f:	8b bd 64 fe ff ff    	mov    edi,DWORD PTR [rbp-0x19c]
    5945:	e8 76 ee ff ff       	call   47c0 <_exit@plt>
    594a:	eb 00                	jmp    594c <_Z12exec_processR10TerminalIORKSt6vectorINSt7__cxx1112basic_stringIcSt11char_traitsIcESaIcEEESaIS7_EERK14TerminalStream+0x7ec>
    594c:	48 8d bd 64 ff ff ff 	lea    rdi,[rbp-0x9c]
                wait(&status);
    5953:	e8 f8 ec ff ff       	call   4650 <wait@plt>
    5958:	eb 00                	jmp    595a <_Z12exec_processR10TerminalIORKSt6vectorINSt7__cxx1112basic_stringIcSt11char_traitsIcESaIcEEESaIS7_EERK14TerminalStream+0x7fa>
                terminal.enable_raw_mode();
    595a:	48 8b bd 58 ff ff ff 	mov    rdi,QWORD PTR [rbp-0xa8]
    5961:	e8 3a 37 00 00       	call   90a0 <_ZN10TerminalIO15enable_raw_modeEv>
    5966:	eb 00                	jmp    5968 <_Z12exec_processR10TerminalIORKSt6vectorINSt7__cxx1112basic_stringIcSt11char_traitsIcESaIcEEESaIS7_EERK14TerminalStream+0x808>
    5968:	eb 00                	jmp    596a <_Z12exec_processR10TerminalIORKSt6vectorINSt7__cxx1112basic_stringIcSt11char_traitsIcESaIcEEESaIS7_EERK14TerminalStream+0x80a>
    596a:	eb 00                	jmp    596c <_Z12exec_processR10TerminalIORKSt6vectorINSt7__cxx1112basic_stringIcSt11char_traitsIcESaIcEEESaIS7_EERK14TerminalStream+0x80c>
            for(size_t i = 0; i < args.size(); i++)
    596c:	48 c7 85 c0 fe ff ff 	mov    QWORD PTR [rbp-0x140],0x0
    5973:	00 00 00 00 
    5977:	48 8b 85 c0 fe ff ff 	mov    rax,QWORD PTR [rbp-0x140]
    597e:	48 89 85 58 fe ff ff 	mov    QWORD PTR [rbp-0x1a8],rax
    5985:	48 8b bd 50 ff ff ff 	mov    rdi,QWORD PTR [rbp-0xb0]
    598c:	e8 ef 04 00 00       	call   5e80 <_ZNKSt6vectorINSt7__cxx1112basic_stringIcSt11char_traitsIcESaIcEEESaIS5_EE4sizeEv>
    5991:	48 89 c1             	mov    rcx,rax
    5994:	48 8b 85 58 fe ff ff 	mov    rax,QWORD PTR [rbp-0x1a8]
    599b:	48 39 c8             	cmp    rax,rcx
    599e:	73 41                	jae    59e1 <_Z12exec_processR10TerminalIORKSt6vectorINSt7__cxx1112basic_stringIcSt11char_traitsIcESaIcEEESaIS7_EERK14TerminalStream+0x881>
                delete[] arguments[i];
    59a0:	48 8b 85 10 ff ff ff 	mov    rax,QWORD PTR [rbp-0xf0]
    59a7:	48 8b 8d c0 fe ff ff 	mov    rcx,QWORD PTR [rbp-0x140]
    59ae:	48 8b 04 c8          	mov    rax,QWORD PTR [rax+rcx*8]
    59b2:	48 89 85 50 fe ff ff 	mov    QWORD PTR [rbp-0x1b0],rax
    59b9:	48 83 f8 00          	cmp    rax,0x0
    59bd:	74 0c                	je     59cb <_Z12exec_processR10TerminalIORKSt6vectorINSt7__cxx1112basic_stringIcSt11char_traitsIcESaIcEEESaIS7_EERK14TerminalStream+0x86b>
    59bf:	48 8b bd 50 fe ff ff 	mov    rdi,QWORD PTR [rbp-0x1b0]
    59c6:	e8 a5 ec ff ff       	call   4670 <_ZdaPv@plt>
            }
    59cb:	eb 00                	jmp    59cd <_Z12exec_processR10TerminalIORKSt6vectorINSt7__cxx1112basic_stringIcSt11char_traitsIcESaIcEEESaIS7_EERK14TerminalStream+0x86d>
            for(size_t i = 0; i < args.size(); i++)
    59cd:	48 8b 85 c0 fe ff ff 	mov    rax,QWORD PTR [rbp-0x140]
    59d4:	48 83 c0 01          	add    rax,0x1
    59d8:	48 89 85 c0 fe ff ff 	mov    QWORD PTR [rbp-0x140],rax
    59df:	eb 96                	jmp    5977 <_Z12exec_processR10TerminalIORKSt6vectorINSt7__cxx1112basic_stringIcSt11char_traitsIcESaIcEEESaIS7_EERK14TerminalStream+0x817>
            delete[] arguments;
    59e1:	48 8b 85 10 ff ff ff 	mov    rax,QWORD PTR [rbp-0xf0]
    59e8:	48 89 85 48 fe ff ff 	mov    QWORD PTR [rbp-0x1b8],rax
    59ef:	48 83 f8 00          	cmp    rax,0x0
    59f3:	74 0c                	je     5a01 <_Z12exec_processR10TerminalIORKSt6vectorINSt7__cxx1112basic_stringIcSt11char_traitsIcESaIcEEESaIS7_EERK14TerminalStream+0x8a1>
    59f5:	48 8b bd 48 fe ff ff 	mov    rdi,QWORD PTR [rbp-0x1b8]
    59fc:	e8 6f ec ff ff       	call   4670 <_ZdaPv@plt>
            return status;
    5a01:	8b 85 64 ff ff ff    	mov    eax,DWORD PTR [rbp-0x9c]
    5a07:	89 85 60 ff ff ff    	mov    DWORD PTR [rbp-0xa0],eax
    5a0d:	c7 85 bc fe ff ff 01 	mov    DWORD PTR [rbp-0x144],0x1
    5a14:	00 00 00 
    5a17:	eb 77                	jmp    5a90 <_Z12exec_processR10TerminalIORKSt6vectorINSt7__cxx1112basic_stringIcSt11char_traitsIcESaIcEEESaIS7_EERK14TerminalStream+0x930>
    }
    5a19:	eb 00                	jmp    5a1b <_Z12exec_processR10TerminalIORKSt6vectorINSt7__cxx1112basic_stringIcSt11char_traitsIcESaIcEEESaIS7_EERK14TerminalStream+0x8bb>
    for(size_t i = 0; i < paths.size(); i++)
    5a1b:	48 8b 85 18 ff ff ff 	mov    rax,QWORD PTR [rbp-0xe8]
    5a22:	48 83 c0 01          	add    rax,0x1
    5a26:	48 89 85 18 ff ff ff 	mov    QWORD PTR [rbp-0xe8],rax
    5a2d:	e9 5d f9 ff ff       	jmp    538f <_Z12exec_processR10TerminalIORKSt6vectorINSt7__cxx1112basic_stringIcSt11char_traitsIcESaIcEEESaIS7_EERK14TerminalStream+0x22f>
    terminal.print_error("Unknown command '%s'\r\n", args[0].c_str());
    5a32:	48 8b 85 58 ff ff ff 	mov    rax,QWORD PTR [rbp-0xa8]
    5a39:	48 89 85 38 fe ff ff 	mov    QWORD PTR [rbp-0x1c8],rax
    5a40:	48 8b bd 50 ff ff ff 	mov    rdi,QWORD PTR [rbp-0xb0]
    5a47:	31 c0                	xor    eax,eax
    5a49:	89 85 44 fe ff ff    	mov    DWORD PTR [rbp-0x1bc],eax
    5a4f:	89 c6                	mov    esi,eax
    5a51:	e8 4a 04 00 00       	call   5ea0 <_ZNKSt6vectorINSt7__cxx1112basic_stringIcSt11char_traitsIcESaIcEEESaIS5_EEixEm>
    5a56:	48 89 c7             	mov    rdi,rax
    5a59:	e8 72 04 00 00       	call   5ed0 <_ZNKSt7__cxx1112basic_stringIcSt11char_traitsIcESaIcEE5c_strEv>
    5a5e:	48 8b bd 38 fe ff ff 	mov    rdi,QWORD PTR [rbp-0x1c8]
    5a65:	48 89 c2             	mov    rdx,rax
    5a68:	8b 85 44 fe ff ff    	mov    eax,DWORD PTR [rbp-0x1bc]
    5a6e:	48 8d 35 9b b6 00 00 	lea    rsi,[rip+0xb69b]        # 11110 <_IO_stdin_used+0x110>
    5a75:	e8 d6 38 00 00       	call   9350 <_ZN10TerminalIO11print_errorEPKcz>
    5a7a:	eb 00                	jmp    5a7c <_Z12exec_processR10TerminalIORKSt6vectorINSt7__cxx1112basic_stringIcSt11char_traitsIcESaIcEEESaIS7_EERK14TerminalStream+0x91c>
    return -1;
    5a7c:	c7 85 60 ff ff ff ff 	mov    DWORD PTR [rbp-0xa0],0xffffffff
    5a83:	ff ff ff 
    5a86:	c7 85 bc fe ff ff 01 	mov    DWORD PTR [rbp-0x144],0x1
    5a8d:	00 00 00 
    5a90:	48 8d 7d 80          	lea    rdi,[rbp-0x80]
}
    5a94:	e8 67 0b 00 00       	call   6600 <_ZNSt6vectorINSt7__cxx1112basic_stringIcSt11char_traitsIcESaIcEEESaIS5_EED2Ev>
    5a99:	8b 85 60 ff ff ff    	mov    eax,DWORD PTR [rbp-0xa0]
    5a9f:	89 85 34 fe ff ff    	mov    DWORD PTR [rbp-0x1cc],eax
    5aa5:	64 48 8b 04 25 28 00 	mov    rax,QWORD PTR fs:0x28
    5aac:	00 00 
    5aae:	48 8b 4d f8          	mov    rcx,QWORD PTR [rbp-0x8]
    5ab2:	48 39 c8             	cmp    rax,rcx
    5ab5:	75 44                	jne    5afb <_Z12exec_processR10TerminalIORKSt6vectorINSt7__cxx1112basic_stringIcSt11char_traitsIcESaIcEEESaIS7_EERK14TerminalStream+0x99b>
    5ab7:	8b 85 34 fe ff ff    	mov    eax,DWORD PTR [rbp-0x1cc]
    5abd:	48 81 c4 e0 01 00 00 	add    rsp,0x1e0
    5ac4:	5d                   	pop    rbp
    5ac5:	c3                   	ret
    5ac6:	48 8d 7d 80          	lea    rdi,[rbp-0x80]
    5aca:	e8 31 0b 00 00       	call   6600 <_ZNSt6vectorINSt7__cxx1112basic_stringIcSt11char_traitsIcESaIcEEESaIS5_EED2Ev>
    5acf:	48 8b 85 30 ff ff ff 	mov    rax,QWORD PTR [rbp-0xd0]
    5ad6:	48 89 85 28 fe ff ff 	mov    QWORD PTR [rbp-0x1d8],rax
    5add:	64 48 8b 04 25 28 00 	mov    rax,QWORD PTR fs:0x28
    5ae4:	00 00 
    5ae6:	48 8b 4d f8          	mov    rcx,QWORD PTR [rbp-0x8]
    5aea:	48 39 c8             	cmp    rax,rcx
    5aed:	75 0c                	jne    5afb <_Z12exec_processR10TerminalIORKSt6vectorINSt7__cxx1112basic_stringIcSt11char_traitsIcESaIcEEESaIS7_EERK14TerminalStream+0x99b>
    5aef:	48 8b bd 28 fe ff ff 	mov    rdi,QWORD PTR [rbp-0x1d8]
    5af6:	e8 85 e9 ff ff       	call   4480 <_Unwind_Resume@plt>
    5afb:	e8 d0 ea ff ff       	call   45d0 <__stack_chk_fail@plt>

0000000000005b00 <_ZL13get_file_pathB5cxx11P8_IO_FILE>:
{
    5b00:	55                   	push   rbp
    5b01:	48 89 e5             	mov    rbp,rsp
    5b04:	48 81 ec 20 01 00 00 	sub    rsp,0x120
    5b0b:	48 89 bd e8 fe ff ff 	mov    QWORD PTR [rbp-0x118],rdi
    5b12:	48 89 f8             	mov    rax,rdi
    5b15:	48 89 85 f0 fe ff ff 	mov    QWORD PTR [rbp-0x110],rax
    5b1c:	64 48 8b 04 25 28 00 	mov    rax,QWORD PTR fs:0x28
    5b23:	00 00 
    5b25:	48 89 45 f8          	mov    QWORD PTR [rbp-0x8],rax
    5b29:	48 89 bd 28 ff ff ff 	mov    QWORD PTR [rbp-0xd8],rdi
    5b30:	48 89 b5 20 ff ff ff 	mov    QWORD PTR [rbp-0xe0],rsi
    int file_no = fileno(handle);
    5b37:	48 8b bd 20 ff ff ff 	mov    rdi,QWORD PTR [rbp-0xe0]
    5b3e:	e8 6d ea ff ff       	call   45b0 <fileno@plt>
    5b43:	89 85 1c ff ff ff    	mov    DWORD PTR [rbp-0xe4],eax
    if(file_no == -1)
    5b49:	83 bd 1c ff ff ff ff 	cmp    DWORD PTR [rbp-0xe4],0xffffffff
    5b50:	75 5e                	jne    5bb0 <_ZL13get_file_pathB5cxx11P8_IO_FILE+0xb0>
    5b52:	48 8b bd e8 fe ff ff 	mov    rdi,QWORD PTR [rbp-0x118]
    5b59:	48 8d 55 d7          	lea    rdx,[rbp-0x29]
    5b5d:	48 89 95 30 ff ff ff 	mov    QWORD PTR [rbp-0xd0],rdx
    5b64:	48 8b 85 30 ff ff ff 	mov    rax,QWORD PTR [rbp-0xd0]
    5b6b:	48 89 45 c8          	mov    QWORD PTR [rbp-0x38],rax
    5b6f:	31 c0                	xor    eax,eax
    5b71:	89 c6                	mov    esi,eax
        return NULL;
    5b73:	e8 28 05 00 00       	call   60a0 <_ZNSt7__cxx1112basic_stringIcSt11char_traitsIcESaIcEEC2IS3_EEPKcRKS3_>
    5b78:	eb 00                	jmp    5b7a <_ZL13get_file_pathB5cxx11P8_IO_FILE+0x7a>
    5b7a:	48 8d 45 d7          	lea    rax,[rbp-0x29]
    5b7e:	48 89 85 58 ff ff ff 	mov    QWORD PTR [rbp-0xa8],rax
    5b85:	e9 96 02 00 00       	jmp    5e20 <_ZL13get_file_pathB5cxx11P8_IO_FILE+0x320>
    5b8a:	f3 0f 1e fa          	endbr64
    5b8e:	48 89 c1             	mov    rcx,rax
}
    5b91:	89 d0                	mov    eax,edx
    5b93:	48 89 8d 10 ff ff ff 	mov    QWORD PTR [rbp-0xf0],rcx
    5b9a:	89 85 0c ff ff ff    	mov    DWORD PTR [rbp-0xf4],eax
    5ba0:	48 8d 45 d7          	lea    rax,[rbp-0x29]
    5ba4:	48 89 85 60 ff ff ff 	mov    QWORD PTR [rbp-0xa0],rax
        return NULL;
    5bab:	e9 92 02 00 00       	jmp    5e42 <_ZL13get_file_pathB5cxx11P8_IO_FILE+0x342>
    std::string proclink;
    5bb0:	48 8d 7d d8          	lea    rdi,[rbp-0x28]
    5bb4:	e8 c7 08 00 00       	call   6480 <_ZNSt7__cxx1112basic_stringIcSt11char_traitsIcESaIcEEC2Ev>
    int buffer_size = std::snprintf(proclink.data(), 0, "/proc/self/fd/%d", file_no);
    5bb9:	48 8d 7d d8          	lea    rdi,[rbp-0x28]
    5bbd:	e8 1e 33 00 00       	call   8ee0 <_ZNSt7__cxx1112basic_stringIcSt11char_traitsIcESaIcEE4dataEv>
    5bc2:	48 89 c7             	mov    rdi,rax
    5bc5:	8b 8d 1c ff ff ff    	mov    ecx,DWORD PTR [rbp-0xe4]
    5bcb:	31 c0                	xor    eax,eax
    5bcd:	89 c6                	mov    esi,eax
    5bcf:	48 8d 15 e6 b5 00 00 	lea    rdx,[rip+0xb5e6]        # 111bc <_IO_stdin_used+0x1bc>
    5bd6:	b0 00                	mov    al,0x0
    5bd8:	e8 b3 eb ff ff       	call   4790 <snprintf@plt>
    5bdd:	89 85 08 ff ff ff    	mov    DWORD PTR [rbp-0xf8],eax
    if(buffer_size < 0)
    5be3:	83 bd 08 ff ff ff 00 	cmp    DWORD PTR [rbp-0xf8],0x0
    5bea:	7d 6b                	jge    5c57 <_ZL13get_file_pathB5cxx11P8_IO_FILE+0x157>
    5bec:	48 8b bd e8 fe ff ff 	mov    rdi,QWORD PTR [rbp-0x118]
    5bf3:	48 8d 55 d6          	lea    rdx,[rbp-0x2a]
    5bf7:	48 89 95 38 ff ff ff 	mov    QWORD PTR [rbp-0xc8],rdx
    5bfe:	48 8b 85 38 ff ff ff 	mov    rax,QWORD PTR [rbp-0xc8]
    5c05:	48 89 45 c0          	mov    QWORD PTR [rbp-0x40],rax
        return "";
    5c09:	48 8d 35 39 b8 00 00 	lea    rsi,[rip+0xb839]        # 11449 <_IO_stdin_used+0x449>
    5c10:	e8 8b 04 00 00       	call   60a0 <_ZNSt7__cxx1112basic_stringIcSt11char_traitsIcESaIcEEC2IS3_EEPKcRKS3_>
    5c15:	eb 00                	jmp    5c17 <_ZL13get_file_pathB5cxx11P8_IO_FILE+0x117>
    5c17:	48 8d 45 d6          	lea    rax,[rbp-0x2a]
    5c1b:	48 89 85 68 ff ff ff 	mov    QWORD PTR [rbp-0x98],rax
    5c22:	c7 85 04 ff ff ff 01 	mov    DWORD PTR [rbp-0xfc],0x1
    5c29:	00 00 00 
    5c2c:	e9 d9 01 00 00       	jmp    5e0a <_ZL13get_file_pathB5cxx11P8_IO_FILE+0x30a>
    5c31:	f3 0f 1e fa          	endbr64
    5c35:	48 89 c1             	mov    rcx,rax
}
    5c38:	89 d0                	mov    eax,edx
    5c3a:	48 89 8d 10 ff ff ff 	mov    QWORD PTR [rbp-0xf0],rcx
    5c41:	89 85 0c ff ff ff    	mov    DWORD PTR [rbp-0xf4],eax
    5c47:	48 8d 45 d6          	lea    rax,[rbp-0x2a]
    5c4b:	48 89 85 70 ff ff ff 	mov    QWORD PTR [rbp-0x90],rax
        return "";
    5c52:	e9 be 01 00 00       	jmp    5e15 <_ZL13get_file_pathB5cxx11P8_IO_FILE+0x315>
    proclink.reserve(buffer_size / sizeof(char));
    5c57:	48 63 b5 08 ff ff ff 	movsxd rsi,DWORD PTR [rbp-0xf8]
    5c5e:	48 8d 7d d8          	lea    rdi,[rbp-0x28]
    5c62:	e8 99 32 00 00       	call   8f00 <_ZNSt7__cxx1112basic_stringIcSt11char_traitsIcESaIcEE7reserveEm>
    5c67:	eb 00                	jmp    5c69 <_ZL13get_file_pathB5cxx11P8_IO_FILE+0x169>
    buffer_size = std::snprintf(proclink.data(), buffer_size, "/proc/self/fd/%d", file_no);
    5c69:	48 8d 7d d8          	lea    rdi,[rbp-0x28]
    5c6d:	e8 6e 32 00 00       	call   8ee0 <_ZNSt7__cxx1112basic_stringIcSt11char_traitsIcESaIcEE4dataEv>
    5c72:	48 89 c7             	mov    rdi,rax
    5c75:	48 63 b5 08 ff ff ff 	movsxd rsi,DWORD PTR [rbp-0xf8]
    5c7c:	8b 8d 1c ff ff ff    	mov    ecx,DWORD PTR [rbp-0xe4]
    5c82:	48 8d 15 33 b5 00 00 	lea    rdx,[rip+0xb533]        # 111bc <_IO_stdin_used+0x1bc>
    5c89:	b0 00                	mov    al,0x0
    5c8b:	e8 00 eb ff ff       	call   4790 <snprintf@plt>
    5c90:	89 85 08 ff ff ff    	mov    DWORD PTR [rbp-0xf8],eax
    if(buffer_size < 0)
    5c96:	83 bd 08 ff ff ff 00 	cmp    DWORD PTR [rbp-0xf8],0x0
    5c9d:	0f 8d 83 00 00 00    	jge    5d26 <_ZL13get_file_pathB5cxx11P8_IO_FILE+0x226>
    5ca3:	48 8b bd e8 fe ff ff 	mov    rdi,QWORD PTR [rbp-0x118]
    5caa:	48 8d 55 d5          	lea    rdx,[rbp-0x2b]
    5cae:	48 89 95 40 ff ff ff 	mov    QWORD PTR [rbp-0xc0],rdx
    5cb5:	48 8b 85 40 ff ff ff 	mov    rax,QWORD PTR [rbp-0xc0]
    5cbc:	48 89 45 b8          	mov    QWORD PTR [rbp-0x48],rax
        return "";
    5cc0:	48 8d 35 82 b7 00 00 	lea    rsi,[rip+0xb782]        # 11449 <_IO_stdin_used+0x449>
    5cc7:	e8 d4 03 00 00       	call   60a0 <_ZNSt7__cxx1112basic_stringIcSt11char_traitsIcESaIcEEC2IS3_EEPKcRKS3_>
    5ccc:	eb 00                	jmp    5cce <_ZL13get_file_pathB5cxx11P8_IO_FILE+0x1ce>
    5cce:	48 8d 45 d5          	lea    rax,[rbp-0x2b]
    5cd2:	48 89 85 78 ff ff ff 	mov    QWORD PTR [rbp-0x88],rax
    5cd9:	c7 85 04 ff ff ff 01 	mov    DWORD PTR [rbp-0xfc],0x1
    5ce0:	00 00 00 
    5ce3:	e9 22 01 00 00       	jmp    5e0a <_ZL13get_file_pathB5cxx11P8_IO_FILE+0x30a>
    5ce8:	f3 0f 1e fa          	endbr64
    5cec:	48 89 c1             	mov    rcx,rax
}
    5cef:	89 d0                	mov    eax,edx
    5cf1:	48 89 8d 10 ff ff ff 	mov    QWORD PTR [rbp-0xf0],rcx
    5cf8:	89 85 0c ff ff ff    	mov    DWORD PTR [rbp-0xf4],eax
    5cfe:	e9 12 01 00 00       	jmp    5e15 <_ZL13get_file_pathB5cxx11P8_IO_FILE+0x315>
    5d03:	f3 0f 1e fa          	endbr64
    5d07:	48 89 c1             	mov    rcx,rax
    5d0a:	89 d0                	mov    eax,edx
    5d0c:	48 89 8d 10 ff ff ff 	mov    QWORD PTR [rbp-0xf0],rcx
    5d13:	89 85 0c ff ff ff    	mov    DWORD PTR [rbp-0xf4],eax
    5d19:	48 8d 45 d5          	lea    rax,[rbp-0x2b]
    5d1d:	48 89 45 80          	mov    QWORD PTR [rbp-0x80],rax
        return "";
    5d21:	e9 ef 00 00 00       	jmp    5e15 <_ZL13get_file_pathB5cxx11P8_IO_FILE+0x315>
    char* res = realpath(proclink.c_str(), NULL);
    5d26:	48 8d 7d d8          	lea    rdi,[rbp-0x28]
    5d2a:	e8 a1 01 00 00       	call   5ed0 <_ZNKSt7__cxx1112basic_stringIcSt11char_traitsIcESaIcEE5c_strEv>
    5d2f:	48 89 c7             	mov    rdi,rax
    5d32:	31 c0                	xor    eax,eax
    5d34:	89 c6                	mov    esi,eax
    5d36:	e8 65 e7 ff ff       	call   44a0 <realpath@plt>
    5d3b:	48 89 85 f8 fe ff ff 	mov    QWORD PTR [rbp-0x108],rax
    if(res == NULL)
    5d42:	48 83 bd f8 fe ff ff 	cmp    QWORD PTR [rbp-0x108],0x0
    5d49:	00 
    5d4a:	75 5f                	jne    5dab <_ZL13get_file_pathB5cxx11P8_IO_FILE+0x2ab>
    5d4c:	48 8b bd e8 fe ff ff 	mov    rdi,QWORD PTR [rbp-0x118]
    5d53:	48 8d 55 d4          	lea    rdx,[rbp-0x2c]
    5d57:	48 89 95 48 ff ff ff 	mov    QWORD PTR [rbp-0xb8],rdx
    5d5e:	48 8b 85 48 ff ff ff 	mov    rax,QWORD PTR [rbp-0xb8]
    5d65:	48 89 45 b0          	mov    QWORD PTR [rbp-0x50],rax
        return "";
    5d69:	48 8d 35 d9 b6 00 00 	lea    rsi,[rip+0xb6d9]        # 11449 <_IO_stdin_used+0x449>
    5d70:	e8 2b 03 00 00       	call   60a0 <_ZNSt7__cxx1112basic_stringIcSt11char_traitsIcESaIcEEC2IS3_EEPKcRKS3_>
    5d75:	eb 00                	jmp    5d77 <_ZL13get_file_pathB5cxx11P8_IO_FILE+0x277>
    5d77:	48 8d 45 d4          	lea    rax,[rbp-0x2c]
    5d7b:	48 89 45 88          	mov    QWORD PTR [rbp-0x78],rax
    5d7f:	c7 85 04 ff ff ff 01 	mov    DWORD PTR [rbp-0xfc],0x1
    5d86:	00 00 00 
    5d89:	eb 7f                	jmp    5e0a <_ZL13get_file_pathB5cxx11P8_IO_FILE+0x30a>
    5d8b:	f3 0f 1e fa          	endbr64
    5d8f:	48 89 c1             	mov    rcx,rax
}
    5d92:	89 d0                	mov    eax,edx
    5d94:	48 89 8d 10 ff ff ff 	mov    QWORD PTR [rbp-0xf0],rcx
    5d9b:	89 85 0c ff ff ff    	mov    DWORD PTR [rbp-0xf4],eax
    5da1:	48 8d 45 d4          	lea    rax,[rbp-0x2c]
    5da5:	48 89 45 90          	mov    QWORD PTR [rbp-0x70],rax
        return "";
    5da9:	eb 6a                	jmp    5e15 <_ZL13get_file_pathB5cxx11P8_IO_FILE+0x315>
    5dab:	48 8b bd e8 fe ff ff 	mov    rdi,QWORD PTR [rbp-0x118]
    return res;
    5db2:	48 8b b5 f8 fe ff ff 	mov    rsi,QWORD PTR [rbp-0x108]
    5db9:	48 8d 55 d3          	lea    rdx,[rbp-0x2d]
    5dbd:	48 89 95 50 ff ff ff 	mov    QWORD PTR [rbp-0xb0],rdx
    5dc4:	48 8b 85 50 ff ff ff 	mov    rax,QWORD PTR [rbp-0xb0]
    5dcb:	48 89 45 a8          	mov    QWORD PTR [rbp-0x58],rax
    5dcf:	e8 cc 02 00 00       	call   60a0 <_ZNSt7__cxx1112basic_stringIcSt11char_traitsIcESaIcEEC2IS3_EEPKcRKS3_>
    5dd4:	eb 00                	jmp    5dd6 <_ZL13get_file_pathB5cxx11P8_IO_FILE+0x2d6>
    5dd6:	48 8d 45 d3          	lea    rax,[rbp-0x2d]
    5dda:	48 89 45 98          	mov    QWORD PTR [rbp-0x68],rax
    5dde:	c7 85 04 ff ff ff 01 	mov    DWORD PTR [rbp-0xfc],0x1
    5de5:	00 00 00 
    5de8:	eb 20                	jmp    5e0a <_ZL13get_file_pathB5cxx11P8_IO_FILE+0x30a>
    5dea:	f3 0f 1e fa          	endbr64
    5dee:	48 89 c1             	mov    rcx,rax
}
    5df1:	89 d0                	mov    eax,edx
    5df3:	48 89 8d 10 ff ff ff 	mov    QWORD PTR [rbp-0xf0],rcx
    5dfa:	89 85 0c ff ff ff    	mov    DWORD PTR [rbp-0xf4],eax
    5e00:	48 8d 45 d3          	lea    rax,[rbp-0x2d]
    5e04:	48 89 45 a0          	mov    QWORD PTR [rbp-0x60],rax
    return res;
    5e08:	eb 0b                	jmp    5e15 <_ZL13get_file_pathB5cxx11P8_IO_FILE+0x315>
}
    5e0a:	48 8d 7d d8          	lea    rdi,[rbp-0x28]
    5e0e:	e8 3d 03 00 00       	call   6150 <_ZNSt7__cxx1112basic_stringIcSt11char_traitsIcESaIcEED2Ev>
    5e13:	eb 0b                	jmp    5e20 <_ZL13get_file_pathB5cxx11P8_IO_FILE+0x320>
    5e15:	48 8d 7d d8          	lea    rdi,[rbp-0x28]
    5e19:	e8 32 03 00 00       	call   6150 <_ZNSt7__cxx1112basic_stringIcSt11char_traitsIcESaIcEED2Ev>
    5e1e:	eb 22                	jmp    5e42 <_ZL13get_file_pathB5cxx11P8_IO_FILE+0x342>
    5e20:	64 48 8b 04 25 28 00 	mov    rax,QWORD PTR fs:0x28
    5e27:	00 00 
    5e29:	48 8b 4d f8          	mov    rcx,QWORD PTR [rbp-0x8]
    5e2d:	48 39 c8             	cmp    rax,rcx
    5e30:	75 3c                	jne    5e6e <_ZL13get_file_pathB5cxx11P8_IO_FILE+0x36e>
    5e32:	48 8b 85 f0 fe ff ff 	mov    rax,QWORD PTR [rbp-0x110]
    5e39:	48 81 c4 20 01 00 00 	add    rsp,0x120
    5e40:	5d                   	pop    rbp
    5e41:	c3                   	ret
        return NULL;
    5e42:	48 8b 85 10 ff ff ff 	mov    rax,QWORD PTR [rbp-0xf0]
    5e49:	48 89 85 e0 fe ff ff 	mov    QWORD PTR [rbp-0x120],rax
    5e50:	64 48 8b 04 25 28 00 	mov    rax,QWORD PTR fs:0x28
    5e57:	00 00 
    5e59:	48 8b 4d f8          	mov    rcx,QWORD PTR [rbp-0x8]
    5e5d:	48 39 c8             	cmp    rax,rcx
    5e60:	75 0c                	jne    5e6e <_ZL13get_file_pathB5cxx11P8_IO_FILE+0x36e>
    5e62:	48 8b bd e0 fe ff ff 	mov    rdi,QWORD PTR [rbp-0x120]
    5e69:	e8 12 e6 ff ff       	call   4480 <_Unwind_Resume@plt>
    5e6e:	e8 5d e7 ff ff       	call   45d0 <__stack_chk_fail@plt>
    5e73:	66 2e 0f 1f 84 00 00 	cs nop WORD PTR [rax+rax*1+0x0]
    5e7a:	00 00 00 
    5e7d:	0f 1f 00             	nop    DWORD PTR [rax]

0000000000005e80 <_ZNKSt6vectorINSt7__cxx1112basic_stringIcSt11char_traitsIcESaIcEEESaIS5_EE4sizeEv>:
      // [23.2.4.2] capacity
      /**  Returns the number of elements in the %vector.  */
      _GLIBCXX_NODISCARD _GLIBCXX20_CONSTEXPR
      size_type
      size() const _GLIBCXX_NOEXCEPT
      { return size_type(this->_M_impl._M_finish - this->_M_impl._M_start); }
    5e80:	f3 0f 1e fa          	endbr64
    5e84:	55                   	push   rbp
    5e85:	48 89 e5             	mov    rbp,rsp
    5e88:	48 89 7d f8          	mov    QWORD PTR [rbp-0x8],rdi
    5e8c:	48 8b 4d f8          	mov    rcx,QWORD PTR [rbp-0x8]
    5e90:	48 8b 41 08          	mov    rax,QWORD PTR [rcx+0x8]
    5e94:	48 8b 09             	mov    rcx,QWORD PTR [rcx]
    5e97:	48 29 c8             	sub    rax,rcx
    5e9a:	48 c1 f8 05          	sar    rax,0x5
    5e9e:	5d                   	pop    rbp
    5e9f:	c3                   	ret

0000000000005ea0 <_ZNKSt6vectorINSt7__cxx1112basic_stringIcSt11char_traitsIcESaIcEEESaIS5_EEixEm>:
       *  see at().)
       */
      _GLIBCXX_NODISCARD _GLIBCXX20_CONSTEXPR
      const_reference
      operator[](size_type __n) const _GLIBCXX_NOEXCEPT
      {
    5ea0:	f3 0f 1e fa          	endbr64
    5ea4:	55                   	push   rbp
    5ea5:	48 89 e5             	mov    rbp,rsp
    5ea8:	48 89 7d f8          	mov    QWORD PTR [rbp-0x8],rdi
    5eac:	48 89 75 f0          	mov    QWORD PTR [rbp-0x10],rsi
    5eb0:	48 8b 45 f8          	mov    rax,QWORD PTR [rbp-0x8]
	__glibcxx_requires_subscript(__n);
	return *(this->_M_impl._M_start + __n);
    5eb4:	48 8b 00             	mov    rax,QWORD PTR [rax]
    5eb7:	48 8b 4d f0          	mov    rcx,QWORD PTR [rbp-0x10]
    5ebb:	48 c1 e1 05          	shl    rcx,0x5
    5ebf:	48 01 c8             	add    rax,rcx
    5ec2:	5d                   	pop    rbp
    5ec3:	c3                   	ret
    5ec4:	66 2e 0f 1f 84 00 00 	cs nop WORD PTR [rax+rax*1+0x0]
    5ecb:	00 00 00 
    5ece:	66 90                	xchg   ax,ax

0000000000005ed0 <_ZNKSt7__cxx1112basic_stringIcSt11char_traitsIcESaIcEE5c_strEv>:
       *  happen.
      */
      _GLIBCXX_NODISCARD _GLIBCXX20_CONSTEXPR
      const _CharT*
      c_str() const _GLIBCXX_NOEXCEPT
      { return _M_data(); }
    5ed0:	f3 0f 1e fa          	endbr64
    5ed4:	55                   	push   rbp
    5ed5:	48 89 e5             	mov    rbp,rsp
    5ed8:	48 83 ec 10          	sub    rsp,0x10
    5edc:	48 89 7d f8          	mov    QWORD PTR [rbp-0x8],rdi
    5ee0:	48 8b 7d f8          	mov    rdi,QWORD PTR [rbp-0x8]
    5ee4:	e8 d7 09 00 00       	call   68c0 <_ZNKSt7__cxx1112basic_stringIcSt11char_traitsIcESaIcEE7_M_dataEv>
    5ee9:	48 89 45 f0          	mov    QWORD PTR [rbp-0x10],rax
    5eed:	eb 00                	jmp    5eef <_ZNKSt7__cxx1112basic_stringIcSt11char_traitsIcESaIcEE5c_strEv+0x1f>
    5eef:	48 8b 45 f0          	mov    rax,QWORD PTR [rbp-0x10]
    5ef3:	48 83 c4 10          	add    rsp,0x10
    5ef7:	5d                   	pop    rbp
    5ef8:	c3                   	ret
    5ef9:	f3 0f 1e fa          	endbr64
    5efd:	48 89 c7             	mov    rdi,rax
    5f00:	e8 db 09 00 00       	call   68e0 <__clang_call_terminate>
    5f05:	66 2e 0f 1f 84 00 00 	cs nop WORD PTR [rax+rax*1+0x0]
    5f0c:	00 00 00 
    5f0f:	90                   	nop

0000000000005f10 <_ZNSt7__cxx1112basic_stringIcSt11char_traitsIcESaIcEEC2ERKS4_>:
      {
    5f10:	f3 0f 1e fa          	endbr64
    5f14:	55                   	push   rbp
    5f15:	48 89 e5             	mov    rbp,rsp
    5f18:	48 81 ec b0 00 00 00 	sub    rsp,0xb0
    5f1f:	64 48 8b 04 25 28 00 	mov    rax,QWORD PTR fs:0x28
    5f26:	00 00 
    5f28:	48 89 45 f8          	mov    QWORD PTR [rbp-0x8],rax
    5f2c:	48 89 7d 98          	mov    QWORD PTR [rbp-0x68],rdi
    5f30:	48 89 75 90          	mov    QWORD PTR [rbp-0x70],rsi
    5f34:	48 8b 7d 98          	mov    rdi,QWORD PTR [rbp-0x68]
    5f38:	48 89 bd 70 ff ff ff 	mov    QWORD PTR [rbp-0x90],rdi
    5f3f:	48 89 f8             	mov    rax,rdi
    5f42:	48 89 85 68 ff ff ff 	mov    QWORD PTR [rbp-0x98],rax
      : _M_dataplus(_M_local_data(),
    5f49:	e8 b2 09 00 00       	call   6900 <_ZNSt7__cxx1112basic_stringIcSt11char_traitsIcESaIcEE13_M_local_dataEv>
    5f4e:	48 89 85 78 ff ff ff 	mov    QWORD PTR [rbp-0x88],rax
		    _Alloc_traits::_S_select_on_copy(__str._M_get_allocator()))
    5f55:	48 8b 7d 90          	mov    rdi,QWORD PTR [rbp-0x70]
    5f59:	e8 d2 09 00 00       	call   6930 <_ZNKSt7__cxx1112basic_stringIcSt11char_traitsIcESaIcEE16_M_get_allocatorEv>
    5f5e:	48 8b bd 70 ff ff ff 	mov    rdi,QWORD PTR [rbp-0x90]
    5f65:	48 8b b5 78 ff ff ff 	mov    rsi,QWORD PTR [rbp-0x88]
    5f6c:	48 8d 55 f7          	lea    rdx,[rbp-0x9]
    5f70:	48 89 55 b8          	mov    QWORD PTR [rbp-0x48],rdx
    5f74:	48 89 45 b0          	mov    QWORD PTR [rbp-0x50],rax
      noexcept(noexcept(_Base_type::destroy(__a, std::__to_address(__p))))
      { _Base_type::destroy(__a, std::__to_address(__p)); }

    [[__gnu__::__always_inline__]]
    static constexpr _Alloc _S_select_on_copy(const _Alloc& __a)
    { return _Base_type::select_on_container_copy_construction(__a); }
    5f78:	48 8b 45 b0          	mov    rax,QWORD PTR [rbp-0x50]
    5f7c:	48 89 55 c8          	mov    QWORD PTR [rbp-0x38],rdx
    5f80:	48 89 45 c0          	mov    QWORD PTR [rbp-0x40],rax
       *  @return @c __rhs
      */
      [[__gnu__::__always_inline__]]
      static _GLIBCXX20_CONSTEXPR allocator_type
      select_on_container_copy_construction(const allocator_type& __rhs)
      { return __rhs; }
    5f84:	48 8b 45 c0          	mov    rax,QWORD PTR [rbp-0x40]
    5f88:	48 89 55 d8          	mov    QWORD PTR [rbp-0x28],rdx
    5f8c:	48 89 45 d0          	mov    QWORD PTR [rbp-0x30],rax
    5f90:	48 8b 4d d8          	mov    rcx,QWORD PTR [rbp-0x28]
      allocator() _GLIBCXX_NOTHROW { }

      __attribute__((__always_inline__))
      _GLIBCXX20_CONSTEXPR
      allocator(const allocator& __a) _GLIBCXX_NOTHROW
      : __allocator_base<_Tp>(__a) { }
    5f94:	48 8b 45 d0          	mov    rax,QWORD PTR [rbp-0x30]
    5f98:	48 89 4d e8          	mov    QWORD PTR [rbp-0x18],rcx
    5f9c:	48 89 45 e0          	mov    QWORD PTR [rbp-0x20],rax
      : _M_dataplus(_M_local_data(),
    5fa0:	e8 ab 09 00 00       	call   6950 <_ZNSt7__cxx1112basic_stringIcSt11char_traitsIcESaIcEE12_Alloc_hiderC2EPcOS3_>
    5fa5:	eb 00                	jmp    5fa7 <_ZNSt7__cxx1112basic_stringIcSt11char_traitsIcESaIcEEC2ERKS4_+0x97>
    5fa7:	48 8d 45 f7          	lea    rax,[rbp-0x9]
    5fab:	48 89 45 a0          	mov    QWORD PTR [rbp-0x60],rax
	_M_construct(__str._M_data(), __str._M_data() + __str.length(),
    5faf:	48 8b 7d 90          	mov    rdi,QWORD PTR [rbp-0x70]
    5fb3:	e8 08 09 00 00       	call   68c0 <_ZNKSt7__cxx1112basic_stringIcSt11char_traitsIcESaIcEE7_M_dataEv>
    5fb8:	48 89 85 60 ff ff ff 	mov    QWORD PTR [rbp-0xa0],rax
    5fbf:	48 8b 7d 90          	mov    rdi,QWORD PTR [rbp-0x70]
    5fc3:	e8 f8 08 00 00       	call   68c0 <_ZNKSt7__cxx1112basic_stringIcSt11char_traitsIcESaIcEE7_M_dataEv>
    5fc8:	48 89 85 58 ff ff ff 	mov    QWORD PTR [rbp-0xa8],rax
    5fcf:	48 8b 7d 90          	mov    rdi,QWORD PTR [rbp-0x70]
    5fd3:	e8 a8 00 00 00       	call   6080 <_ZNKSt7__cxx1112basic_stringIcSt11char_traitsIcESaIcEE6lengthEv>
    5fd8:	48 8b 95 58 ff ff ff 	mov    rdx,QWORD PTR [rbp-0xa8]
    5fdf:	48 8b bd 68 ff ff ff 	mov    rdi,QWORD PTR [rbp-0x98]
    5fe6:	48 8b b5 60 ff ff ff 	mov    rsi,QWORD PTR [rbp-0xa0]
    5fed:	48 01 c2             	add    rdx,rax
    5ff0:	e8 9b 09 00 00       	call   6990 <_ZNSt7__cxx1112basic_stringIcSt11char_traitsIcESaIcEE12_M_constructIPcEEvT_S7_St20forward_iterator_tag>
    5ff5:	eb 00                	jmp    5ff7 <_ZNSt7__cxx1112basic_stringIcSt11char_traitsIcESaIcEEC2ERKS4_+0xe7>
      }
    5ff7:	64 48 8b 04 25 28 00 	mov    rax,QWORD PTR fs:0x28
    5ffe:	00 00 
    6000:	48 8b 4d f8          	mov    rcx,QWORD PTR [rbp-0x8]
    6004:	48 39 c8             	cmp    rax,rcx
    6007:	75 68                	jne    6071 <_ZNSt7__cxx1112basic_stringIcSt11char_traitsIcESaIcEEC2ERKS4_+0x161>
    6009:	48 81 c4 b0 00 00 00 	add    rsp,0xb0
    6010:	5d                   	pop    rbp
    6011:	c3                   	ret
    6012:	f3 0f 1e fa          	endbr64
    6016:	48 89 c1             	mov    rcx,rax
    6019:	89 d0                	mov    eax,edx
    601b:	48 89 4d 88          	mov    QWORD PTR [rbp-0x78],rcx
    601f:	89 45 84             	mov    DWORD PTR [rbp-0x7c],eax
    6022:	48 8d 45 f7          	lea    rax,[rbp-0x9]
    6026:	48 89 45 a8          	mov    QWORD PTR [rbp-0x58],rax
      : _M_dataplus(_M_local_data(),
    602a:	eb 1c                	jmp    6048 <_ZNSt7__cxx1112basic_stringIcSt11char_traitsIcESaIcEEC2ERKS4_+0x138>
    602c:	f3 0f 1e fa          	endbr64
    6030:	48 8b bd 70 ff ff ff 	mov    rdi,QWORD PTR [rbp-0x90]
    6037:	48 89 c1             	mov    rcx,rax
      }
    603a:	89 d0                	mov    eax,edx
    603c:	48 89 4d 88          	mov    QWORD PTR [rbp-0x78],rcx
    6040:	89 45 84             	mov    DWORD PTR [rbp-0x7c],eax
    6043:	e8 98 0a 00 00       	call   6ae0 <_ZNSt7__cxx1112basic_stringIcSt11char_traitsIcESaIcEE12_Alloc_hiderD2Ev>
      : _M_dataplus(_M_local_data(),
    6048:	48 8b 45 88          	mov    rax,QWORD PTR [rbp-0x78]
    604c:	48 89 85 50 ff ff ff 	mov    QWORD PTR [rbp-0xb0],rax
    6053:	64 48 8b 04 25 28 00 	mov    rax,QWORD PTR fs:0x28
    605a:	00 00 
    605c:	48 8b 4d f8          	mov    rcx,QWORD PTR [rbp-0x8]
    6060:	48 39 c8             	cmp    rax,rcx
    6063:	75 0c                	jne    6071 <_ZNSt7__cxx1112basic_stringIcSt11char_traitsIcESaIcEEC2ERKS4_+0x161>
    6065:	48 8b bd 50 ff ff ff 	mov    rdi,QWORD PTR [rbp-0xb0]
    606c:	e8 0f e4 ff ff       	call   4480 <_Unwind_Resume@plt>
    6071:	e8 5a e5 ff ff       	call   45d0 <__stack_chk_fail@plt>
    6076:	66 2e 0f 1f 84 00 00 	cs nop WORD PTR [rax+rax*1+0x0]
    607d:	00 00 00 

0000000000006080 <_ZNKSt7__cxx1112basic_stringIcSt11char_traitsIcESaIcEE6lengthEv>:
      { return _M_string_length; }
    6080:	f3 0f 1e fa          	endbr64
    6084:	55                   	push   rbp
    6085:	48 89 e5             	mov    rbp,rsp
    6088:	48 89 7d f8          	mov    QWORD PTR [rbp-0x8],rdi
    608c:	48 8b 45 f8          	mov    rax,QWORD PTR [rbp-0x8]
    6090:	48 8b 40 08          	mov    rax,QWORD PTR [rax+0x8]
    6094:	5d                   	pop    rbp
    6095:	c3                   	ret
    6096:	66 2e 0f 1f 84 00 00 	cs nop WORD PTR [rax+rax*1+0x0]
    609d:	00 00 00 

00000000000060a0 <_ZNSt7__cxx1112basic_stringIcSt11char_traitsIcESaIcEEC2IS3_EEPKcRKS3_>:
      {
    60a0:	f3 0f 1e fa          	endbr64
    60a4:	55                   	push   rbp
    60a5:	48 89 e5             	mov    rbp,rsp
    60a8:	48 83 ec 50          	sub    rsp,0x50
    60ac:	48 89 7d f8          	mov    QWORD PTR [rbp-0x8],rdi
    60b0:	48 89 75 f0          	mov    QWORD PTR [rbp-0x10],rsi
    60b4:	48 89 55 e8          	mov    QWORD PTR [rbp-0x18],rdx
    60b8:	48 8b 7d f8          	mov    rdi,QWORD PTR [rbp-0x8]
    60bc:	48 89 7d c0          	mov    QWORD PTR [rbp-0x40],rdi
      : _M_dataplus(_M_local_data(), __a)
    60c0:	e8 3b 08 00 00       	call   6900 <_ZNSt7__cxx1112basic_stringIcSt11char_traitsIcESaIcEE13_M_local_dataEv>
    60c5:	48 8b 7d c0          	mov    rdi,QWORD PTR [rbp-0x40]
    60c9:	48 89 c6             	mov    rsi,rax
    60cc:	48 8b 55 e8          	mov    rdx,QWORD PTR [rbp-0x18]
    60d0:	e8 0b 10 00 00       	call   70e0 <_ZNSt7__cxx1112basic_stringIcSt11char_traitsIcESaIcEE12_Alloc_hiderC2EPcRKS3_>
	if (__s == 0)
    60d5:	48 83 7d f0 00       	cmp    QWORD PTR [rbp-0x10],0x0
    60da:	75 29                	jne    6105 <_ZNSt7__cxx1112basic_stringIcSt11char_traitsIcESaIcEEC2IS3_EEPKcRKS3_+0x65>
	  std::__throw_logic_error(__N("basic_string: "
    60dc:	48 8d 3d 5f b0 00 00 	lea    rdi,[rip+0xb05f]        # 11142 <_IO_stdin_used+0x142>
    60e3:	e8 48 e4 ff ff       	call   4530 <_ZSt19__throw_logic_errorPKc@plt>
    60e8:	eb 00                	jmp    60ea <_ZNSt7__cxx1112basic_stringIcSt11char_traitsIcESaIcEEC2IS3_EEPKcRKS3_+0x4a>
    60ea:	f3 0f 1e fa          	endbr64
    60ee:	48 8b 7d c0          	mov    rdi,QWORD PTR [rbp-0x40]
    60f2:	48 89 c1             	mov    rcx,rax
      }
    60f5:	89 d0                	mov    eax,edx
    60f7:	48 89 4d e0          	mov    QWORD PTR [rbp-0x20],rcx
    60fb:	89 45 dc             	mov    DWORD PTR [rbp-0x24],eax
    60fe:	e8 dd 09 00 00       	call   6ae0 <_ZNSt7__cxx1112basic_stringIcSt11char_traitsIcESaIcEE12_Alloc_hiderD2Ev>
    6103:	eb 3b                	jmp    6140 <_ZNSt7__cxx1112basic_stringIcSt11char_traitsIcESaIcEEC2IS3_EEPKcRKS3_+0xa0>
	const _CharT* __end = __s + traits_type::length(__s);
    6105:	48 8b 7d f0          	mov    rdi,QWORD PTR [rbp-0x10]
    6109:	48 89 7d b0          	mov    QWORD PTR [rbp-0x50],rdi
    610d:	e8 0e 10 00 00       	call   7120 <_ZNSt11char_traitsIcE6lengthEPKc>
    6112:	48 89 45 b8          	mov    QWORD PTR [rbp-0x48],rax
    6116:	eb 00                	jmp    6118 <_ZNSt7__cxx1112basic_stringIcSt11char_traitsIcESaIcEEC2IS3_EEPKcRKS3_+0x78>
    6118:	48 8b 7d c0          	mov    rdi,QWORD PTR [rbp-0x40]
    611c:	48 8b 4d b8          	mov    rcx,QWORD PTR [rbp-0x48]
    6120:	48 8b 45 b0          	mov    rax,QWORD PTR [rbp-0x50]
    6124:	48 01 c8             	add    rax,rcx
    6127:	48 89 45 d0          	mov    QWORD PTR [rbp-0x30],rax
	_M_construct(__s, __end, forward_iterator_tag());
    612b:	48 8b 75 f0          	mov    rsi,QWORD PTR [rbp-0x10]
    612f:	48 8b 55 d0          	mov    rdx,QWORD PTR [rbp-0x30]
    6133:	e8 08 10 00 00       	call   7140 <_ZNSt7__cxx1112basic_stringIcSt11char_traitsIcESaIcEE12_M_constructIPKcEEvT_S8_St20forward_iterator_tag>
    6138:	eb 00                	jmp    613a <_ZNSt7__cxx1112basic_stringIcSt11char_traitsIcESaIcEEC2IS3_EEPKcRKS3_+0x9a>
      }
    613a:	48 83 c4 50          	add    rsp,0x50
    613e:	5d                   	pop    rbp
    613f:	c3                   	ret
    6140:	48 8b 7d e0          	mov    rdi,QWORD PTR [rbp-0x20]
    6144:	e8 37 e3 ff ff       	call   4480 <_Unwind_Resume@plt>
    6149:	0f 1f 80 00 00 00 00 	nop    DWORD PTR [rax+0x0]

0000000000006150 <_ZNSt7__cxx1112basic_stringIcSt11char_traitsIcESaIcEED2Ev>:
      { _M_dispose(); }
    6150:	f3 0f 1e fa          	endbr64
    6154:	55                   	push   rbp
    6155:	48 89 e5             	mov    rbp,rsp
    6158:	48 83 ec 10          	sub    rsp,0x10
    615c:	48 89 7d f8          	mov    QWORD PTR [rbp-0x8],rdi
    6160:	48 8b 7d f8          	mov    rdi,QWORD PTR [rbp-0x8]
    6164:	48 89 7d f0          	mov    QWORD PTR [rbp-0x10],rdi
    6168:	e8 d3 0d 00 00       	call   6f40 <_ZNSt7__cxx1112basic_stringIcSt11char_traitsIcESaIcEE10_M_disposeEv>
    616d:	eb 00                	jmp    616f <_ZNSt7__cxx1112basic_stringIcSt11char_traitsIcESaIcEED2Ev+0x1f>
    616f:	48 8b 7d f0          	mov    rdi,QWORD PTR [rbp-0x10]
    6173:	e8 68 09 00 00       	call   6ae0 <_ZNSt7__cxx1112basic_stringIcSt11char_traitsIcESaIcEE12_Alloc_hiderD2Ev>
    6178:	48 83 c4 10          	add    rsp,0x10
    617c:	5d                   	pop    rbp
    617d:	c3                   	ret
    617e:	f3 0f 1e fa          	endbr64
    6182:	48 89 c7             	mov    rdi,rax
    6185:	e8 56 07 00 00       	call   68e0 <__clang_call_terminate>
    618a:	66 0f 1f 44 00 00    	nop    WORD PTR [rax+rax*1+0x0]

0000000000006190 <_ZNSt7__cxx1112basic_stringIcSt11char_traitsIcESaIcEEaSEOS4_>:
      {
    6190:	f3 0f 1e fa          	endbr64
    6194:	55                   	push   rbp
    6195:	48 89 e5             	mov    rbp,rsp
    6198:	48 81 ec 90 00 00 00 	sub    rsp,0x90
    619f:	48 89 7d d8          	mov    QWORD PTR [rbp-0x28],rdi
    61a3:	48 89 75 d0          	mov    QWORD PTR [rbp-0x30],rsi
    61a7:	48 8b 7d d8          	mov    rdi,QWORD PTR [rbp-0x28]
    61ab:	48 89 7d a8          	mov    QWORD PTR [rbp-0x58],rdi
	const bool __equal_allocs = _Alloc_traits::_S_always_equal()
    61af:	c6 45 cf 01          	mov    BYTE PTR [rbp-0x31],0x1
	if (!_M_is_local() && _Alloc_traits::_S_propagate_on_move_assign()
    61b3:	e8 c8 0d 00 00       	call   6f80 <_ZNKSt7__cxx1112basic_stringIcSt11char_traitsIcESaIcEE11_M_is_localEv>
    61b8:	88 45 b7             	mov    BYTE PTR [rbp-0x49],al
    61bb:	eb 00                	jmp    61bd <_ZNSt7__cxx1112basic_stringIcSt11char_traitsIcESaIcEEaSEOS4_+0x2d>
    61bd:	8a 45 b7             	mov    al,BYTE PTR [rbp-0x49]
	    && !__equal_allocs)
    61c0:	a8 01                	test   al,0x1
    61c2:	75 3d                	jne    6201 <_ZNSt7__cxx1112basic_stringIcSt11char_traitsIcESaIcEEaSEOS4_+0x71>
    61c4:	eb 00                	jmp    61c6 <_ZNSt7__cxx1112basic_stringIcSt11char_traitsIcESaIcEEaSEOS4_+0x36>
	if (!_M_is_local() && _Alloc_traits::_S_propagate_on_move_assign()
    61c6:	b0 01                	mov    al,0x1
    61c8:	a8 01                	test   al,0x1
    61ca:	75 35                	jne    6201 <_ZNSt7__cxx1112basic_stringIcSt11char_traitsIcESaIcEEaSEOS4_+0x71>
    61cc:	eb 00                	jmp    61ce <_ZNSt7__cxx1112basic_stringIcSt11char_traitsIcESaIcEEaSEOS4_+0x3e>
    61ce:	48 8b 7d a8          	mov    rdi,QWORD PTR [rbp-0x58]
	    _M_destroy(_M_allocated_capacity);
    61d2:	48 8b 77 10          	mov    rsi,QWORD PTR [rdi+0x10]
    61d6:	e8 05 0e 00 00       	call   6fe0 <_ZNSt7__cxx1112basic_stringIcSt11char_traitsIcESaIcEE10_M_destroyEm>
    61db:	48 8b 7d a8          	mov    rdi,QWORD PTR [rbp-0x58]
	    _M_data(_M_local_data());
    61df:	e8 1c 07 00 00       	call   6900 <_ZNSt7__cxx1112basic_stringIcSt11char_traitsIcESaIcEE13_M_local_dataEv>
    61e4:	48 8b 7d a8          	mov    rdi,QWORD PTR [rbp-0x58]
    61e8:	48 89 c6             	mov    rsi,rax
    61eb:	e8 30 09 00 00       	call   6b20 <_ZNSt7__cxx1112basic_stringIcSt11char_traitsIcESaIcEE7_M_dataEPc>
    61f0:	48 8b 7d a8          	mov    rdi,QWORD PTR [rbp-0x58]
    61f4:	31 c0                	xor    eax,eax
    61f6:	89 c6                	mov    esi,eax
	    _M_set_length(0);
    61f8:	e8 93 0a 00 00       	call   6c90 <_ZNSt7__cxx1112basic_stringIcSt11char_traitsIcESaIcEE13_M_set_lengthEm>
    61fd:	eb 00                	jmp    61ff <_ZNSt7__cxx1112basic_stringIcSt11char_traitsIcESaIcEEaSEOS4_+0x6f>
	  }
    61ff:	eb 00                	jmp    6201 <_ZNSt7__cxx1112basic_stringIcSt11char_traitsIcESaIcEEaSEOS4_+0x71>
    6201:	48 8b 7d a8          	mov    rdi,QWORD PTR [rbp-0x58]
	std::__alloc_on_move(_M_get_allocator(), __str._M_get_allocator());
    6205:	e8 d6 0b 00 00       	call   6de0 <_ZNSt7__cxx1112basic_stringIcSt11char_traitsIcESaIcEE16_M_get_allocatorEv>
    620a:	48 89 45 a0          	mov    QWORD PTR [rbp-0x60],rax
    620e:	48 8b 7d d0          	mov    rdi,QWORD PTR [rbp-0x30]
    6212:	e8 c9 0b 00 00       	call   6de0 <_ZNSt7__cxx1112basic_stringIcSt11char_traitsIcESaIcEE16_M_get_allocatorEv>
    6217:	48 8b 4d a0          	mov    rcx,QWORD PTR [rbp-0x60]
    621b:	48 89 4d e8          	mov    QWORD PTR [rbp-0x18],rcx
    621f:	48 89 45 e0          	mov    QWORD PTR [rbp-0x20],rax
	if (__str._M_is_local())
    6223:	48 8b 7d d0          	mov    rdi,QWORD PTR [rbp-0x30]
    6227:	e8 54 0d 00 00       	call   6f80 <_ZNKSt7__cxx1112basic_stringIcSt11char_traitsIcESaIcEE11_M_is_localEv>
    622c:	88 45 9f             	mov    BYTE PTR [rbp-0x61],al
    622f:	eb 00                	jmp    6231 <_ZNSt7__cxx1112basic_stringIcSt11char_traitsIcESaIcEEaSEOS4_+0xa1>
    6231:	8a 45 9f             	mov    al,BYTE PTR [rbp-0x61]
    6234:	a8 01                	test   al,0x1
    6236:	75 02                	jne    623a <_ZNSt7__cxx1112basic_stringIcSt11char_traitsIcESaIcEEaSEOS4_+0xaa>
    6238:	eb 6e                	jmp    62a8 <_ZNSt7__cxx1112basic_stringIcSt11char_traitsIcESaIcEEaSEOS4_+0x118>
    623a:	48 8b 45 a8          	mov    rax,QWORD PTR [rbp-0x58]
	    if (__builtin_expect(std::__addressof(__str) != this, true))
    623e:	48 39 45 d0          	cmp    QWORD PTR [rbp-0x30],rax
    6242:	74 5f                	je     62a3 <_ZNSt7__cxx1112basic_stringIcSt11char_traitsIcESaIcEEaSEOS4_+0x113>
		if (__str.size())
    6244:	48 8b 7d d0          	mov    rdi,QWORD PTR [rbp-0x30]
    6248:	e8 e3 10 00 00       	call   7330 <_ZNKSt7__cxx1112basic_stringIcSt11char_traitsIcESaIcEE4sizeEv>
    624d:	48 83 f8 00          	cmp    rax,0x0
    6251:	74 37                	je     628a <_ZNSt7__cxx1112basic_stringIcSt11char_traitsIcESaIcEEaSEOS4_+0xfa>
    6253:	48 8b 7d a8          	mov    rdi,QWORD PTR [rbp-0x58]
		  this->_S_copy(_M_data(), __str._M_data(), __str.size());
    6257:	e8 64 06 00 00       	call   68c0 <_ZNKSt7__cxx1112basic_stringIcSt11char_traitsIcESaIcEE7_M_dataEv>
    625c:	48 89 45 88          	mov    QWORD PTR [rbp-0x78],rax
    6260:	48 8b 7d d0          	mov    rdi,QWORD PTR [rbp-0x30]
    6264:	e8 57 06 00 00       	call   68c0 <_ZNKSt7__cxx1112basic_stringIcSt11char_traitsIcESaIcEE7_M_dataEv>
    6269:	48 89 45 90          	mov    QWORD PTR [rbp-0x70],rax
    626d:	48 8b 7d d0          	mov    rdi,QWORD PTR [rbp-0x30]
    6271:	e8 ba 10 00 00       	call   7330 <_ZNKSt7__cxx1112basic_stringIcSt11char_traitsIcESaIcEE4sizeEv>
    6276:	48 8b 7d 88          	mov    rdi,QWORD PTR [rbp-0x78]
    627a:	48 8b 75 90          	mov    rsi,QWORD PTR [rbp-0x70]
    627e:	48 89 c2             	mov    rdx,rax
    6281:	e8 da 0b 00 00       	call   6e60 <_ZNSt7__cxx1112basic_stringIcSt11char_traitsIcESaIcEE7_S_copyEPcPKcm>
    6286:	eb 00                	jmp    6288 <_ZNSt7__cxx1112basic_stringIcSt11char_traitsIcESaIcEEaSEOS4_+0xf8>
    6288:	eb 00                	jmp    628a <_ZNSt7__cxx1112basic_stringIcSt11char_traitsIcESaIcEEaSEOS4_+0xfa>
		_M_set_length(__str.size());
    628a:	48 8b 7d d0          	mov    rdi,QWORD PTR [rbp-0x30]
    628e:	e8 9d 10 00 00       	call   7330 <_ZNKSt7__cxx1112basic_stringIcSt11char_traitsIcESaIcEE4sizeEv>
    6293:	48 8b 7d a8          	mov    rdi,QWORD PTR [rbp-0x58]
    6297:	48 89 c6             	mov    rsi,rax
    629a:	e8 f1 09 00 00       	call   6c90 <_ZNSt7__cxx1112basic_stringIcSt11char_traitsIcESaIcEE13_M_set_lengthEm>
    629f:	eb 00                	jmp    62a1 <_ZNSt7__cxx1112basic_stringIcSt11char_traitsIcESaIcEEaSEOS4_+0x111>
	      }
    62a1:	eb 00                	jmp    62a3 <_ZNSt7__cxx1112basic_stringIcSt11char_traitsIcESaIcEEaSEOS4_+0x113>
	  }
    62a3:	e9 ca 00 00 00       	jmp    6372 <_ZNSt7__cxx1112basic_stringIcSt11char_traitsIcESaIcEEaSEOS4_+0x1e2>
    62a8:	48 8b 7d a8          	mov    rdi,QWORD PTR [rbp-0x58]
	    pointer __data = nullptr;
    62ac:	48 c7 45 c0 00 00 00 	mov    QWORD PTR [rbp-0x40],0x0
    62b3:	00 
	    if (!_M_is_local())
    62b4:	e8 c7 0c 00 00       	call   6f80 <_ZNKSt7__cxx1112basic_stringIcSt11char_traitsIcESaIcEE11_M_is_localEv>
    62b9:	88 45 87             	mov    BYTE PTR [rbp-0x79],al
    62bc:	eb 00                	jmp    62be <_ZNSt7__cxx1112basic_stringIcSt11char_traitsIcESaIcEEaSEOS4_+0x12e>
    62be:	8a 45 87             	mov    al,BYTE PTR [rbp-0x79]
    62c1:	a8 01                	test   al,0x1
    62c3:	75 1e                	jne    62e3 <_ZNSt7__cxx1112basic_stringIcSt11char_traitsIcESaIcEEaSEOS4_+0x153>
    62c5:	eb 00                	jmp    62c7 <_ZNSt7__cxx1112basic_stringIcSt11char_traitsIcESaIcEEaSEOS4_+0x137>
    62c7:	48 8b 7d a8          	mov    rdi,QWORD PTR [rbp-0x58]
		    __data = _M_data();
    62cb:	e8 f0 05 00 00       	call   68c0 <_ZNKSt7__cxx1112basic_stringIcSt11char_traitsIcESaIcEE7_M_dataEv>
    62d0:	48 89 c1             	mov    rcx,rax
    62d3:	48 8b 45 a8          	mov    rax,QWORD PTR [rbp-0x58]
    62d7:	48 89 4d c0          	mov    QWORD PTR [rbp-0x40],rcx
		    __capacity = _M_allocated_capacity;
    62db:	48 8b 40 10          	mov    rax,QWORD PTR [rax+0x10]
    62df:	48 89 45 b8          	mov    QWORD PTR [rbp-0x48],rax
	    _M_data(__str._M_data());
    62e3:	48 8b 7d d0          	mov    rdi,QWORD PTR [rbp-0x30]
    62e7:	e8 d4 05 00 00       	call   68c0 <_ZNKSt7__cxx1112basic_stringIcSt11char_traitsIcESaIcEE7_M_dataEv>
    62ec:	48 8b 7d a8          	mov    rdi,QWORD PTR [rbp-0x58]
    62f0:	48 89 c6             	mov    rsi,rax
    62f3:	e8 28 08 00 00       	call   6b20 <_ZNSt7__cxx1112basic_stringIcSt11char_traitsIcESaIcEE7_M_dataEPc>
	    _M_length(__str.length());
    62f8:	48 8b 7d d0          	mov    rdi,QWORD PTR [rbp-0x30]
    62fc:	e8 7f fd ff ff       	call   6080 <_ZNKSt7__cxx1112basic_stringIcSt11char_traitsIcESaIcEE6lengthEv>
    6301:	48 8b 7d a8          	mov    rdi,QWORD PTR [rbp-0x58]
    6305:	48 89 c6             	mov    rsi,rax
    6308:	e8 13 0c 00 00       	call   6f20 <_ZNSt7__cxx1112basic_stringIcSt11char_traitsIcESaIcEE9_M_lengthEm>
    630d:	48 8b 7d a8          	mov    rdi,QWORD PTR [rbp-0x58]
	    _M_capacity(__str._M_allocated_capacity);
    6311:	48 8b 45 d0          	mov    rax,QWORD PTR [rbp-0x30]
    6315:	48 8b 70 10          	mov    rsi,QWORD PTR [rax+0x10]
    6319:	e8 f2 08 00 00       	call   6c10 <_ZNSt7__cxx1112basic_stringIcSt11char_traitsIcESaIcEE11_M_capacityEm>
	    if (__data)
    631e:	48 83 7d c0 00       	cmp    QWORD PTR [rbp-0x40],0x0
    6323:	74 1c                	je     6341 <_ZNSt7__cxx1112basic_stringIcSt11char_traitsIcESaIcEEaSEOS4_+0x1b1>
		__str._M_data(__data);
    6325:	48 8b 7d d0          	mov    rdi,QWORD PTR [rbp-0x30]
    6329:	48 8b 75 c0          	mov    rsi,QWORD PTR [rbp-0x40]
    632d:	e8 ee 07 00 00       	call   6b20 <_ZNSt7__cxx1112basic_stringIcSt11char_traitsIcESaIcEE7_M_dataEPc>
		__str._M_capacity(__capacity);
    6332:	48 8b 7d d0          	mov    rdi,QWORD PTR [rbp-0x30]
    6336:	48 8b 75 b8          	mov    rsi,QWORD PTR [rbp-0x48]
    633a:	e8 d1 08 00 00       	call   6c10 <_ZNSt7__cxx1112basic_stringIcSt11char_traitsIcESaIcEE11_M_capacityEm>
	      }
    633f:	eb 2f                	jmp    6370 <_ZNSt7__cxx1112basic_stringIcSt11char_traitsIcESaIcEEaSEOS4_+0x1e0>
	      __str._M_data(__str._M_use_local_data());
    6341:	48 8b 45 d0          	mov    rax,QWORD PTR [rbp-0x30]
    6345:	48 89 85 78 ff ff ff 	mov    QWORD PTR [rbp-0x88],rax
    634c:	48 8b 45 d0          	mov    rax,QWORD PTR [rbp-0x30]
    6350:	48 89 45 f0          	mov    QWORD PTR [rbp-0x10],rax
    6354:	48 8b 7d f0          	mov    rdi,QWORD PTR [rbp-0x10]
    6358:	48 89 7d f8          	mov    QWORD PTR [rbp-0x8],rdi
	return _M_local_data();
    635c:	e8 9f 05 00 00       	call   6900 <_ZNSt7__cxx1112basic_stringIcSt11char_traitsIcESaIcEE13_M_local_dataEv>
    6361:	48 8b bd 78 ff ff ff 	mov    rdi,QWORD PTR [rbp-0x88]
    6368:	48 89 c6             	mov    rsi,rax
	      __str._M_data(__str._M_use_local_data());
    636b:	e8 b0 07 00 00       	call   6b20 <_ZNSt7__cxx1112basic_stringIcSt11char_traitsIcESaIcEE7_M_dataEPc>
    6370:	eb 00                	jmp    6372 <_ZNSt7__cxx1112basic_stringIcSt11char_traitsIcESaIcEEaSEOS4_+0x1e2>
	__str.clear();
    6372:	48 8b 7d d0          	mov    rdi,QWORD PTR [rbp-0x30]
    6376:	e8 d5 0f 00 00       	call   7350 <_ZNSt7__cxx1112basic_stringIcSt11char_traitsIcESaIcEE5clearEv>
    637b:	48 8b 45 a8          	mov    rax,QWORD PTR [rbp-0x58]
	return *this;
    637f:	48 81 c4 90 00 00 00 	add    rsp,0x90
    6386:	5d                   	pop    rbp
    6387:	c3                   	ret
    6388:	f3 0f 1e fa          	endbr64
    638c:	48 89 c7             	mov    rdi,rax
	if (!_M_is_local() && _Alloc_traits::_S_propagate_on_move_assign()
    638f:	e8 4c 05 00 00       	call   68e0 <__clang_call_terminate>
    6394:	66 2e 0f 1f 84 00 00 	cs nop WORD PTR [rax+rax*1+0x0]
    639b:	00 00 00 
    639e:	66 90                	xchg   ax,ax

00000000000063a0 <_Z14allocate_arrayIPcEPT_m>:
#include <cstdio>
#include <cstdlib>

template<class T>
T* allocate_array(std::size_t len)
{
    63a0:	f3 0f 1e fa          	endbr64
    63a4:	55                   	push   rbp
    63a5:	48 89 e5             	mov    rbp,rsp
    63a8:	48 83 ec 10          	sub    rsp,0x10
    63ac:	48 89 7d f8          	mov    QWORD PTR [rbp-0x8],rdi
   T* res = new T[len];
    63b0:	48 8b 45 f8          	mov    rax,QWORD PTR [rbp-0x8]
    63b4:	b9 08 00 00 00       	mov    ecx,0x8
    63b9:	48 f7 e1             	mul    rcx
    63bc:	48 89 c7             	mov    rdi,rax
    63bf:	0f 90 c1             	seto   cl
    63c2:	48 c7 c0 ff ff ff ff 	mov    rax,0xffffffffffffffff
    63c9:	f6 c1 01             	test   cl,0x1
    63cc:	48 0f 45 f8          	cmovne rdi,rax
    63d0:	e8 6b e0 ff ff       	call   4440 <_Znam@plt>
    63d5:	48 89 45 f0          	mov    QWORD PTR [rbp-0x10],rax
   if(res == NULL)
    63d9:	48 83 7d f0 00       	cmp    QWORD PTR [rbp-0x10],0x0
    63de:	75 22                	jne    6402 <_Z14allocate_arrayIPcEPT_m+0x62>
   {
        fprintf(stderr, "Error: Unable to allocate memory\r\n");
    63e0:	48 8b 05 e9 0b 01 00 	mov    rax,QWORD PTR [rip+0x10be9]        # 16fd0 <stderr@GLIBC_2.2.5>
    63e7:	48 8b 38             	mov    rdi,QWORD PTR [rax]
    63ea:	48 8d 35 dc ad 00 00 	lea    rsi,[rip+0xaddc]        # 111cd <_IO_stdin_used+0x1cd>
    63f1:	b0 00                	mov    al,0x0
    63f3:	e8 d8 e2 ff ff       	call   46d0 <fprintf@plt>
        exit(-1);
    63f8:	bf ff ff ff ff       	mov    edi,0xffffffff
    63fd:	e8 2e e2 ff ff       	call   4630 <exit@plt>
   }
   return res;
    6402:	48 8b 45 f0          	mov    rax,QWORD PTR [rbp-0x10]
    6406:	48 83 c4 10          	add    rsp,0x10
    640a:	5d                   	pop    rbp
    640b:	c3                   	ret
    640c:	0f 1f 40 00          	nop    DWORD PTR [rax+0x0]

0000000000006410 <_Z14allocate_arrayIcEPT_m>:
{
    6410:	f3 0f 1e fa          	endbr64
    6414:	55                   	push   rbp
    6415:	48 89 e5             	mov    rbp,rsp
    6418:	48 83 ec 10          	sub    rsp,0x10
    641c:	48 89 7d f8          	mov    QWORD PTR [rbp-0x8],rdi
   T* res = new T[len];
    6420:	48 8b 7d f8          	mov    rdi,QWORD PTR [rbp-0x8]
    6424:	e8 17 e0 ff ff       	call   4440 <_Znam@plt>
    6429:	48 89 45 f0          	mov    QWORD PTR [rbp-0x10],rax
   if(res == NULL)
    642d:	48 83 7d f0 00       	cmp    QWORD PTR [rbp-0x10],0x0
    6432:	75 22                	jne    6456 <_Z14allocate_arrayIcEPT_m+0x46>
        fprintf(stderr, "Error: Unable to allocate memory\r\n");
    6434:	48 8b 05 95 0b 01 00 	mov    rax,QWORD PTR [rip+0x10b95]        # 16fd0 <stderr@GLIBC_2.2.5>
    643b:	48 8b 38             	mov    rdi,QWORD PTR [rax]
    643e:	48 8d 35 88 ad 00 00 	lea    rsi,[rip+0xad88]        # 111cd <_IO_stdin_used+0x1cd>
    6445:	b0 00                	mov    al,0x0
    6447:	e8 84 e2 ff ff       	call   46d0 <fprintf@plt>
        exit(-1);
    644c:	bf ff ff ff ff       	mov    edi,0xffffffff
    6451:	e8 da e1 ff ff       	call   4630 <exit@plt>
   return res;
    6456:	48 8b 45 f0          	mov    rax,QWORD PTR [rbp-0x10]
    645a:	48 83 c4 10          	add    rsp,0x10
    645e:	5d                   	pop    rbp
    645f:	c3                   	ret

0000000000006460 <_ZNSt6vectorINSt7__cxx1112basic_stringIcSt11char_traitsIcESaIcEEESaIS5_EEC2Ev>:
      vector() = default;
    6460:	f3 0f 1e fa          	endbr64
    6464:	55                   	push   rbp
    6465:	48 89 e5             	mov    rbp,rsp
    6468:	48 83 ec 10          	sub    rsp,0x10
    646c:	48 89 7d f8          	mov    QWORD PTR [rbp-0x8],rdi
    6470:	48 8b 7d f8          	mov    rdi,QWORD PTR [rbp-0x8]
    6474:	e8 17 0f 00 00       	call   7390 <_ZNSt12_Vector_baseINSt7__cxx1112basic_stringIcSt11char_traitsIcESaIcEEESaIS5_EEC2Ev>
    6479:	48 83 c4 10          	add    rsp,0x10
    647d:	5d                   	pop    rbp
    647e:	c3                   	ret
    647f:	90                   	nop

0000000000006480 <_ZNSt7__cxx1112basic_stringIcSt11char_traitsIcESaIcEEC2Ev>:
      {
    6480:	f3 0f 1e fa          	endbr64
    6484:	55                   	push   rbp
    6485:	48 89 e5             	mov    rbp,rsp
    6488:	48 83 ec 40          	sub    rsp,0x40
    648c:	64 48 8b 04 25 28 00 	mov    rax,QWORD PTR fs:0x28
    6493:	00 00 
    6495:	48 89 45 f8          	mov    QWORD PTR [rbp-0x8],rax
    6499:	48 89 7d c8          	mov    QWORD PTR [rbp-0x38],rdi
    649d:	48 8b 7d c8          	mov    rdi,QWORD PTR [rbp-0x38]
    64a1:	48 89 7d c0          	mov    QWORD PTR [rbp-0x40],rdi
      : _M_dataplus(_M_local_data())
    64a5:	e8 56 04 00 00       	call   6900 <_ZNSt7__cxx1112basic_stringIcSt11char_traitsIcESaIcEE13_M_local_dataEv>
    64aa:	48 8b 7d c0          	mov    rdi,QWORD PTR [rbp-0x40]
    64ae:	48 89 c6             	mov    rsi,rax
    64b1:	48 8d 55 f7          	lea    rdx,[rbp-0x9]
    64b5:	48 89 55 d0          	mov    QWORD PTR [rbp-0x30],rdx
    64b9:	48 8b 45 d0          	mov    rax,QWORD PTR [rbp-0x30]
    64bd:	48 89 45 e8          	mov    QWORD PTR [rbp-0x18],rax
    64c1:	e8 8a 04 00 00       	call   6950 <_ZNSt7__cxx1112basic_stringIcSt11char_traitsIcESaIcEE12_Alloc_hiderC2EPcOS3_>
    64c6:	eb 00                	jmp    64c8 <_ZNSt7__cxx1112basic_stringIcSt11char_traitsIcESaIcEEC2Ev+0x48>
    64c8:	48 8b 7d c0          	mov    rdi,QWORD PTR [rbp-0x40]
    64cc:	48 8d 45 f7          	lea    rax,[rbp-0x9]
    64d0:	48 89 45 d8          	mov    QWORD PTR [rbp-0x28],rax
    64d4:	48 89 7d e0          	mov    QWORD PTR [rbp-0x20],rdi
    64d8:	31 c0                	xor    eax,eax
    64da:	89 c6                	mov    esi,eax
	_M_set_length(0);
    64dc:	e8 af 07 00 00       	call   6c90 <_ZNSt7__cxx1112basic_stringIcSt11char_traitsIcESaIcEE13_M_set_lengthEm>
    64e1:	eb 00                	jmp    64e3 <_ZNSt7__cxx1112basic_stringIcSt11char_traitsIcESaIcEEC2Ev+0x63>
      }
    64e3:	64 48 8b 04 25 28 00 	mov    rax,QWORD PTR fs:0x28
    64ea:	00 00 
    64ec:	48 8b 4d f8          	mov    rcx,QWORD PTR [rbp-0x8]
    64f0:	48 39 c8             	cmp    rax,rcx
    64f3:	75 12                	jne    6507 <_ZNSt7__cxx1112basic_stringIcSt11char_traitsIcESaIcEEC2Ev+0x87>
    64f5:	48 83 c4 40          	add    rsp,0x40
    64f9:	5d                   	pop    rbp
    64fa:	c3                   	ret
    64fb:	f3 0f 1e fa          	endbr64
    64ff:	48 89 c7             	mov    rdi,rax
      : _M_dataplus(_M_local_data())
    6502:	e8 d9 03 00 00       	call   68e0 <__clang_call_terminate>
    6507:	e8 c4 e0 ff ff       	call   45d0 <__stack_chk_fail@plt>
    650c:	0f 1f 40 00          	nop    DWORD PTR [rax+0x0]

0000000000006510 <_ZNSt6vectorINSt7__cxx1112basic_stringIcSt11char_traitsIcESaIcEEESaIS5_EE12emplace_backIJRS5_EEES9_DpOT_>:
#else
      void
#endif
      vector<_Tp, _Alloc>::
      emplace_back(_Args&&... __args)
      {
    6510:	f3 0f 1e fa          	endbr64
    6514:	55                   	push   rbp
    6515:	48 89 e5             	mov    rbp,rsp
    6518:	48 83 ec 30          	sub    rsp,0x30
    651c:	48 89 7d e0          	mov    QWORD PTR [rbp-0x20],rdi
    6520:	48 89 75 d8          	mov    QWORD PTR [rbp-0x28],rsi
    6524:	48 8b 4d e0          	mov    rcx,QWORD PTR [rbp-0x20]
    6528:	48 89 4d d0          	mov    QWORD PTR [rbp-0x30],rcx
	if (this->_M_impl._M_finish != this->_M_impl._M_end_of_storage)
    652c:	48 8b 41 08          	mov    rax,QWORD PTR [rcx+0x8]
    6530:	48 3b 41 10          	cmp    rax,QWORD PTR [rcx+0x10]
    6534:	74 37                	je     656d <_ZNSt6vectorINSt7__cxx1112basic_stringIcSt11char_traitsIcESaIcEEESaIS5_EE12emplace_backIJRS5_EEES9_DpOT_+0x5d>
    6536:	48 8b 55 d0          	mov    rdx,QWORD PTR [rbp-0x30]
	  {
	    _GLIBCXX_ASAN_ANNOTATE_GROW(1);
	    _Alloc_traits::construct(this->_M_impl, this->_M_impl._M_finish,
    653a:	48 8b 4a 08          	mov    rcx,QWORD PTR [rdx+0x8]
				     std::forward<_Args>(__args)...);
    653e:	48 8b 45 d8          	mov    rax,QWORD PTR [rbp-0x28]
    6542:	48 89 55 f8          	mov    QWORD PTR [rbp-0x8],rdx
    6546:	48 89 4d f0          	mov    QWORD PTR [rbp-0x10],rcx
    654a:	48 89 45 e8          	mov    QWORD PTR [rbp-0x18],rax
	  std::construct_at(__p, std::forward<_Args>(__args)...);
    654e:	48 8b 7d f0          	mov    rdi,QWORD PTR [rbp-0x10]
    6552:	48 8b 75 e8          	mov    rsi,QWORD PTR [rbp-0x18]
    6556:	e8 25 11 00 00       	call   7680 <_ZSt12construct_atINSt7__cxx1112basic_stringIcSt11char_traitsIcESaIcEEEJRS5_EEDTgsnwcvPvLi0E_T_pispclsr3stdE7declvalIT0_EEEEPS8_DpOS9_>
    655b:	48 8b 45 d0          	mov    rax,QWORD PTR [rbp-0x30]
	    ++this->_M_impl._M_finish;
    655f:	48 8b 48 08          	mov    rcx,QWORD PTR [rax+0x8]
    6563:	48 83 c1 20          	add    rcx,0x20
    6567:	48 89 48 08          	mov    QWORD PTR [rax+0x8],rcx
	    _GLIBCXX_ASAN_ANNOTATE_GREW(1);
	  }
    656b:	eb 0d                	jmp    657a <_ZNSt6vectorINSt7__cxx1112basic_stringIcSt11char_traitsIcESaIcEEESaIS5_EE12emplace_backIJRS5_EEES9_DpOT_+0x6a>
    656d:	48 8b 7d d0          	mov    rdi,QWORD PTR [rbp-0x30]
	else
	  _M_realloc_append(std::forward<_Args>(__args)...);
    6571:	48 8b 75 d8          	mov    rsi,QWORD PTR [rbp-0x28]
    6575:	e8 66 0e 00 00       	call   73e0 <_ZNSt6vectorINSt7__cxx1112basic_stringIcSt11char_traitsIcESaIcEEESaIS5_EE17_M_realloc_appendIJRS5_EEEvDpOT_>
    657a:	48 8b 7d d0          	mov    rdi,QWORD PTR [rbp-0x30]
#if __cplusplus > 201402L
	return back();
    657e:	e8 8d 10 00 00       	call   7610 <_ZNSt6vectorINSt7__cxx1112basic_stringIcSt11char_traitsIcESaIcEEESaIS5_EE4backEv>
    6583:	48 83 c4 30          	add    rsp,0x30
    6587:	5d                   	pop    rbp
    6588:	c3                   	ret
    6589:	0f 1f 80 00 00 00 00 	nop    DWORD PTR [rax+0x0]

0000000000006590 <_ZNSt7__cxx1112basic_stringIcSt11char_traitsIcESaIcEEaSEPKc>:
      { return this->assign(__s); }
    6590:	f3 0f 1e fa          	endbr64
    6594:	55                   	push   rbp
    6595:	48 89 e5             	mov    rbp,rsp
    6598:	48 83 ec 10          	sub    rsp,0x10
    659c:	48 89 7d f8          	mov    QWORD PTR [rbp-0x8],rdi
    65a0:	48 89 75 f0          	mov    QWORD PTR [rbp-0x10],rsi
    65a4:	48 8b 7d f8          	mov    rdi,QWORD PTR [rbp-0x8]
    65a8:	48 8b 75 f0          	mov    rsi,QWORD PTR [rbp-0x10]
    65ac:	e8 6f 1a 00 00       	call   8020 <_ZNSt7__cxx1112basic_stringIcSt11char_traitsIcESaIcEE6assignEPKc>
    65b1:	48 83 c4 10          	add    rsp,0x10
    65b5:	5d                   	pop    rbp
    65b6:	c3                   	ret
    65b7:	66 0f 1f 84 00 00 00 	nop    WORD PTR [rax+rax*1+0x0]
    65be:	00 00 

00000000000065c0 <_ZNSt7__cxx1112basic_stringIcSt11char_traitsIcESaIcEEpLEc>:
      {
    65c0:	f3 0f 1e fa          	endbr64
    65c4:	55                   	push   rbp
    65c5:	48 89 e5             	mov    rbp,rsp
    65c8:	48 83 ec 20          	sub    rsp,0x20
    65cc:	40 88 f0             	mov    al,sil
    65cf:	48 89 7d f8          	mov    QWORD PTR [rbp-0x8],rdi
    65d3:	88 45 f7             	mov    BYTE PTR [rbp-0x9],al
    65d6:	48 8b 7d f8          	mov    rdi,QWORD PTR [rbp-0x8]
    65da:	48 89 7d e8          	mov    QWORD PTR [rbp-0x18],rdi
	this->push_back(__c);
    65de:	0f be 75 f7          	movsx  esi,BYTE PTR [rbp-0x9]
    65e2:	e8 69 1f 00 00       	call   8550 <_ZNSt7__cxx1112basic_stringIcSt11char_traitsIcESaIcEE9push_backEc>
    65e7:	48 8b 45 e8          	mov    rax,QWORD PTR [rbp-0x18]
	return *this;
    65eb:	48 83 c4 20          	add    rsp,0x20
    65ef:	5d                   	pop    rbp
    65f0:	c3                   	ret
    65f1:	66 2e 0f 1f 84 00 00 	cs nop WORD PTR [rax+rax*1+0x0]
    65f8:	00 00 00 
    65fb:	0f 1f 44 00 00       	nop    DWORD PTR [rax+rax*1+0x0]

0000000000006600 <_ZNSt6vectorINSt7__cxx1112basic_stringIcSt11char_traitsIcESaIcEEESaIS5_EED2Ev>:
      {
    6600:	f3 0f 1e fa          	endbr64
    6604:	55                   	push   rbp
    6605:	48 89 e5             	mov    rbp,rsp
    6608:	48 83 ec 40          	sub    rsp,0x40
    660c:	48 89 7d e0          	mov    QWORD PTR [rbp-0x20],rdi
    6610:	48 8b 7d e0          	mov    rdi,QWORD PTR [rbp-0x20]
    6614:	48 89 7d c8          	mov    QWORD PTR [rbp-0x38],rdi
	std::_Destroy(this->_M_impl._M_start, this->_M_impl._M_finish,
    6618:	48 8b 07             	mov    rax,QWORD PTR [rdi]
    661b:	48 89 45 d0          	mov    QWORD PTR [rbp-0x30],rax
    661f:	48 8b 47 08          	mov    rax,QWORD PTR [rdi+0x8]
    6623:	48 89 45 d8          	mov    QWORD PTR [rbp-0x28],rax
		      _M_get_Tp_allocator());
    6627:	e8 d4 13 00 00       	call   7a00 <_ZNSt12_Vector_baseINSt7__cxx1112basic_stringIcSt11char_traitsIcESaIcEEESaIS5_EE19_M_get_Tp_allocatorEv>
    662c:	48 8b 55 d0          	mov    rdx,QWORD PTR [rbp-0x30]
    6630:	48 8b 4d d8          	mov    rcx,QWORD PTR [rbp-0x28]
    6634:	48 89 55 f8          	mov    QWORD PTR [rbp-0x8],rdx
    6638:	48 89 4d f0          	mov    QWORD PTR [rbp-0x10],rcx
    663c:	48 89 45 e8          	mov    QWORD PTR [rbp-0x18],rax
    __attribute__((__always_inline__)) _GLIBCXX20_CONSTEXPR
    inline void
    _Destroy(_ForwardIterator __first, _ForwardIterator __last,
	     allocator<_Tp>&)
    {
      std::_Destroy(__first, __last);
    6640:	48 8b 7d f8          	mov    rdi,QWORD PTR [rbp-0x8]
    6644:	48 8b 75 f0          	mov    rsi,QWORD PTR [rbp-0x10]
    6648:	e8 13 20 00 00       	call   8660 <_ZSt8_DestroyIPNSt7__cxx1112basic_stringIcSt11char_traitsIcESaIcEEEEvT_S7_>
    664d:	eb 00                	jmp    664f <_ZNSt6vectorINSt7__cxx1112basic_stringIcSt11char_traitsIcESaIcEEESaIS5_EED2Ev+0x4f>
    }
    664f:	eb 00                	jmp    6651 <_ZNSt6vectorINSt7__cxx1112basic_stringIcSt11char_traitsIcESaIcEEESaIS5_EED2Ev+0x51>
    6651:	48 8b 7d c8          	mov    rdi,QWORD PTR [rbp-0x38]
      }
    6655:	e8 b6 1f 00 00       	call   8610 <_ZNSt12_Vector_baseINSt7__cxx1112basic_stringIcSt11char_traitsIcESaIcEEESaIS5_EED2Ev>
    665a:	48 83 c4 40          	add    rsp,0x40
    665e:	5d                   	pop    rbp
    665f:	c3                   	ret
    6660:	f3 0f 1e fa          	endbr64
    6664:	48 89 c7             	mov    rdi,rax
	std::_Destroy(this->_M_impl._M_start, this->_M_impl._M_finish,
    6667:	e8 74 02 00 00       	call   68e0 <__clang_call_terminate>
    666c:	0f 1f 40 00          	nop    DWORD PTR [rax+0x0]

0000000000006670 <_ZNKSt7__cxx1112basic_stringIcSt11char_traitsIcESaIcEEixEm>:
      {
    6670:	f3 0f 1e fa          	endbr64
    6674:	55                   	push   rbp
    6675:	48 89 e5             	mov    rbp,rsp
    6678:	48 83 ec 20          	sub    rsp,0x20
    667c:	48 89 7d f8          	mov    QWORD PTR [rbp-0x8],rdi
    6680:	48 89 75 f0          	mov    QWORD PTR [rbp-0x10],rsi
    6684:	48 8b 45 f8          	mov    rax,QWORD PTR [rbp-0x8]
    6688:	48 89 45 e8          	mov    QWORD PTR [rbp-0x18],rax
	__glibcxx_assert(__pos <= size());
    668c:	eb 00                	jmp    668e <_ZNKSt7__cxx1112basic_stringIcSt11char_traitsIcESaIcEEixEm+0x1e>
    668e:	eb 00                	jmp    6690 <_ZNKSt7__cxx1112basic_stringIcSt11char_traitsIcESaIcEEixEm+0x20>
    6690:	48 8b 7d e8          	mov    rdi,QWORD PTR [rbp-0x18]
	return _M_data()[__pos];
    6694:	e8 27 02 00 00       	call   68c0 <_ZNKSt7__cxx1112basic_stringIcSt11char_traitsIcESaIcEE7_M_dataEv>
    6699:	48 03 45 f0          	add    rax,QWORD PTR [rbp-0x10]
    669d:	48 83 c4 20          	add    rsp,0x20
    66a1:	5d                   	pop    rbp
    66a2:	c3                   	ret
    66a3:	66 2e 0f 1f 84 00 00 	cs nop WORD PTR [rax+rax*1+0x0]
    66aa:	00 00 00 
    66ad:	0f 1f 00             	nop    DWORD PTR [rax]

00000000000066b0 <_ZNSt6vectorINSt7__cxx1112basic_stringIcSt11char_traitsIcESaIcEEESaIS5_EE12emplace_backIJRKS5_EEERS5_DpOT_>:
      {
    66b0:	f3 0f 1e fa          	endbr64
    66b4:	55                   	push   rbp
    66b5:	48 89 e5             	mov    rbp,rsp
    66b8:	48 83 ec 30          	sub    rsp,0x30
    66bc:	48 89 7d e0          	mov    QWORD PTR [rbp-0x20],rdi
    66c0:	48 89 75 d8          	mov    QWORD PTR [rbp-0x28],rsi
    66c4:	48 8b 4d e0          	mov    rcx,QWORD PTR [rbp-0x20]
    66c8:	48 89 4d d0          	mov    QWORD PTR [rbp-0x30],rcx
	if (this->_M_impl._M_finish != this->_M_impl._M_end_of_storage)
    66cc:	48 8b 41 08          	mov    rax,QWORD PTR [rcx+0x8]
    66d0:	48 3b 41 10          	cmp    rax,QWORD PTR [rcx+0x10]
    66d4:	74 37                	je     670d <_ZNSt6vectorINSt7__cxx1112basic_stringIcSt11char_traitsIcESaIcEEESaIS5_EE12emplace_backIJRKS5_EEERS5_DpOT_+0x5d>
    66d6:	48 8b 55 d0          	mov    rdx,QWORD PTR [rbp-0x30]
	    _Alloc_traits::construct(this->_M_impl, this->_M_impl._M_finish,
    66da:	48 8b 4a 08          	mov    rcx,QWORD PTR [rdx+0x8]
				     std::forward<_Args>(__args)...);
    66de:	48 8b 45 d8          	mov    rax,QWORD PTR [rbp-0x28]
    66e2:	48 89 55 f8          	mov    QWORD PTR [rbp-0x8],rdx
    66e6:	48 89 4d f0          	mov    QWORD PTR [rbp-0x10],rcx
    66ea:	48 89 45 e8          	mov    QWORD PTR [rbp-0x18],rax
	  std::construct_at(__p, std::forward<_Args>(__args)...);
    66ee:	48 8b 7d f0          	mov    rdi,QWORD PTR [rbp-0x10]
    66f2:	48 8b 75 e8          	mov    rsi,QWORD PTR [rbp-0x18]
    66f6:	e8 b5 22 00 00       	call   89b0 <_ZSt12construct_atINSt7__cxx1112basic_stringIcSt11char_traitsIcESaIcEEEJRKS5_EEDTgsnwcvPvLi0E_T_pispclsr3stdE7declvalIT0_EEEEPS9_DpOSA_>
    66fb:	48 8b 45 d0          	mov    rax,QWORD PTR [rbp-0x30]
	    ++this->_M_impl._M_finish;
    66ff:	48 8b 48 08          	mov    rcx,QWORD PTR [rax+0x8]
    6703:	48 83 c1 20          	add    rcx,0x20
    6707:	48 89 48 08          	mov    QWORD PTR [rax+0x8],rcx
	  }
    670b:	eb 0d                	jmp    671a <_ZNSt6vectorINSt7__cxx1112basic_stringIcSt11char_traitsIcESaIcEEESaIS5_EE12emplace_backIJRKS5_EEERS5_DpOT_+0x6a>
    670d:	48 8b 7d d0          	mov    rdi,QWORD PTR [rbp-0x30]
	  _M_realloc_append(std::forward<_Args>(__args)...);
    6711:	48 8b 75 d8          	mov    rsi,QWORD PTR [rbp-0x28]
    6715:	e8 66 20 00 00       	call   8780 <_ZNSt6vectorINSt7__cxx1112basic_stringIcSt11char_traitsIcESaIcEEESaIS5_EE17_M_realloc_appendIJRKS5_EEEvDpOT_>
    671a:	48 8b 7d d0          	mov    rdi,QWORD PTR [rbp-0x30]
	return back();
    671e:	e8 ed 0e 00 00       	call   7610 <_ZNSt6vectorINSt7__cxx1112basic_stringIcSt11char_traitsIcESaIcEEESaIS5_EE4backEv>
    6723:	48 83 c4 30          	add    rsp,0x30
    6727:	5d                   	pop    rbp
    6728:	c3                   	ret
    6729:	0f 1f 80 00 00 00 00 	nop    DWORD PTR [rax+0x0]

0000000000006730 <_ZNSt6vectorINSt7__cxx1112basic_stringIcSt11char_traitsIcESaIcEEESaIS5_EEaSEOS7_>:
      {
    6730:	f3 0f 1e fa          	endbr64
    6734:	55                   	push   rbp
    6735:	48 89 e5             	mov    rbp,rsp
    6738:	48 83 ec 20          	sub    rsp,0x20
    673c:	48 89 7d f8          	mov    QWORD PTR [rbp-0x8],rdi
    6740:	48 89 75 f0          	mov    QWORD PTR [rbp-0x10],rsi
    6744:	48 8b 7d f8          	mov    rdi,QWORD PTR [rbp-0x8]
    6748:	48 89 7d e0          	mov    QWORD PTR [rbp-0x20],rdi
	constexpr bool __move_storage =
    674c:	c6 45 ef 01          	mov    BYTE PTR [rbp-0x11],0x1
	_M_move_assign(std::move(__x), __bool_constant<__move_storage>());
    6750:	48 8b 75 f0          	mov    rsi,QWORD PTR [rbp-0x10]
    6754:	e8 37 23 00 00       	call   8a90 <_ZNSt6vectorINSt7__cxx1112basic_stringIcSt11char_traitsIcESaIcEEESaIS5_EE14_M_move_assignEOS7_St17integral_constantIbLb1EE>
    6759:	48 8b 45 e0          	mov    rax,QWORD PTR [rbp-0x20]
	return *this;
    675d:	48 83 c4 20          	add    rsp,0x20
    6761:	5d                   	pop    rbp
    6762:	c3                   	ret
    6763:	66 2e 0f 1f 84 00 00 	cs nop WORD PTR [rax+rax*1+0x0]
    676a:	00 00 00 
    676d:	0f 1f 00             	nop    DWORD PTR [rax]

0000000000006770 <_ZNSt6vectorINSt7__cxx1112basic_stringIcSt11char_traitsIcESaIcEEESaIS5_EEixEm>:
      {
    6770:	f3 0f 1e fa          	endbr64
    6774:	55                   	push   rbp
    6775:	48 89 e5             	mov    rbp,rsp
    6778:	48 89 7d f8          	mov    QWORD PTR [rbp-0x8],rdi
    677c:	48 89 75 f0          	mov    QWORD PTR [rbp-0x10],rsi
    6780:	48 8b 45 f8          	mov    rax,QWORD PTR [rbp-0x8]
	return *(this->_M_impl._M_start + __n);
    6784:	48 8b 00             	mov    rax,QWORD PTR [rax]
    6787:	48 8b 4d f0          	mov    rcx,QWORD PTR [rbp-0x10]
    678b:	48 c1 e1 05          	shl    rcx,0x5
    678f:	48 01 c8             	add    rax,rcx
    6792:	5d                   	pop    rbp
    6793:	c3                   	ret
    6794:	66 2e 0f 1f 84 00 00 	cs nop WORD PTR [rax+rax*1+0x0]
    679b:	00 00 00 
    679e:	66 90                	xchg   ax,ax

00000000000067a0 <_ZNSt7__cxx1112basic_stringIcSt11char_traitsIcESaIcEE4backEv>:
      {
    67a0:	f3 0f 1e fa          	endbr64
    67a4:	55                   	push   rbp
    67a5:	48 89 e5             	mov    rbp,rsp
    67a8:	48 83 ec 20          	sub    rsp,0x20
    67ac:	48 89 7d f8          	mov    QWORD PTR [rbp-0x8],rdi
    67b0:	48 8b 45 f8          	mov    rax,QWORD PTR [rbp-0x8]
    67b4:	48 89 45 f0          	mov    QWORD PTR [rbp-0x10],rax
	__glibcxx_assert(!empty());
    67b8:	eb 00                	jmp    67ba <_ZNSt7__cxx1112basic_stringIcSt11char_traitsIcESaIcEE4backEv+0x1a>
    67ba:	eb 00                	jmp    67bc <_ZNSt7__cxx1112basic_stringIcSt11char_traitsIcESaIcEE4backEv+0x1c>
    67bc:	48 8b 7d f0          	mov    rdi,QWORD PTR [rbp-0x10]
	return operator[](this->size() - 1);
    67c0:	e8 6b 0b 00 00       	call   7330 <_ZNKSt7__cxx1112basic_stringIcSt11char_traitsIcESaIcEE4sizeEv>
    67c5:	48 8b 7d f0          	mov    rdi,QWORD PTR [rbp-0x10]
    67c9:	48 89 c6             	mov    rsi,rax
    67cc:	48 ff ce             	dec    rsi
    67cf:	e8 5c 25 00 00       	call   8d30 <_ZNSt7__cxx1112basic_stringIcSt11char_traitsIcESaIcEEixEm>
    67d4:	48 89 45 e8          	mov    QWORD PTR [rbp-0x18],rax
    67d8:	eb 00                	jmp    67da <_ZNSt7__cxx1112basic_stringIcSt11char_traitsIcESaIcEE4backEv+0x3a>
    67da:	48 8b 45 e8          	mov    rax,QWORD PTR [rbp-0x18]
    67de:	48 83 c4 20          	add    rsp,0x20
    67e2:	5d                   	pop    rbp
    67e3:	c3                   	ret
    67e4:	f3 0f 1e fa          	endbr64
    67e8:	48 89 c7             	mov    rdi,rax
    67eb:	e8 f0 00 00 00       	call   68e0 <__clang_call_terminate>

00000000000067f0 <_ZNSt7__cxx1112basic_stringIcSt11char_traitsIcESaIcEEpLERKS4_>:
      { return this->append(__str); }
    67f0:	f3 0f 1e fa          	endbr64
    67f4:	55                   	push   rbp
    67f5:	48 89 e5             	mov    rbp,rsp
    67f8:	48 83 ec 10          	sub    rsp,0x10
    67fc:	48 89 7d f8          	mov    QWORD PTR [rbp-0x8],rdi
    6800:	48 89 75 f0          	mov    QWORD PTR [rbp-0x10],rsi
    6804:	48 8b 7d f8          	mov    rdi,QWORD PTR [rbp-0x8]
    6808:	48 8b 75 f0          	mov    rsi,QWORD PTR [rbp-0x10]
    680c:	e8 5f 25 00 00       	call   8d70 <_ZNSt7__cxx1112basic_stringIcSt11char_traitsIcESaIcEE6appendERKS4_>
    6811:	48 83 c4 10          	add    rsp,0x10
    6815:	5d                   	pop    rbp
    6816:	c3                   	ret
    6817:	66 0f 1f 84 00 00 00 	nop    WORD PTR [rax+rax*1+0x0]
    681e:	00 00 

0000000000006820 <_ZSteqIcSt11char_traitsIcESaIcEEbRKNSt7__cxx1112basic_stringIT_T0_T1_EESA_>:
    _GLIBCXX_NODISCARD _GLIBCXX20_CONSTEXPR
    inline bool
    operator==(const basic_string<_CharT, _Traits, _Alloc>& __lhs,
	       const basic_string<_CharT, _Traits, _Alloc>& __rhs)
    _GLIBCXX_NOEXCEPT
    {
    6820:	f3 0f 1e fa          	endbr64
    6824:	55                   	push   rbp
    6825:	48 89 e5             	mov    rbp,rsp
    6828:	48 83 ec 40          	sub    rsp,0x40
    682c:	48 89 7d f8          	mov    QWORD PTR [rbp-0x8],rdi
    6830:	48 89 75 f0          	mov    QWORD PTR [rbp-0x10],rsi
      return __lhs.size() == __rhs.size()
    6834:	48 8b 7d f8          	mov    rdi,QWORD PTR [rbp-0x8]
    6838:	e8 f3 0a 00 00       	call   7330 <_ZNKSt7__cxx1112basic_stringIcSt11char_traitsIcESaIcEE4sizeEv>
    683d:	48 89 45 e0          	mov    QWORD PTR [rbp-0x20],rax
    6841:	48 8b 7d f0          	mov    rdi,QWORD PTR [rbp-0x10]
    6845:	e8 e6 0a 00 00       	call   7330 <_ZNKSt7__cxx1112basic_stringIcSt11char_traitsIcESaIcEE4sizeEv>
    684a:	48 8b 4d e0          	mov    rcx,QWORD PTR [rbp-0x20]
    684e:	48 89 c2             	mov    rdx,rax
    6851:	31 c0                	xor    eax,eax
    6853:	48 39 d1             	cmp    rcx,rdx
    6856:	88 45 ef             	mov    BYTE PTR [rbp-0x11],al
	       && !_Traits::compare(__lhs.data(), __rhs.data(), __lhs.size());
    6859:	75 46                	jne    68a1 <_ZSteqIcSt11char_traitsIcESaIcEEbRKNSt7__cxx1112basic_stringIT_T0_T1_EESA_+0x81>
    685b:	48 8b 7d f8          	mov    rdi,QWORD PTR [rbp-0x8]
    685f:	e8 bc 27 00 00       	call   9020 <_ZNKSt7__cxx1112basic_stringIcSt11char_traitsIcESaIcEE4dataEv>
    6864:	48 89 45 c8          	mov    QWORD PTR [rbp-0x38],rax
    6868:	48 8b 7d f0          	mov    rdi,QWORD PTR [rbp-0x10]
    686c:	e8 af 27 00 00       	call   9020 <_ZNKSt7__cxx1112basic_stringIcSt11char_traitsIcESaIcEE4dataEv>
    6871:	48 89 45 d0          	mov    QWORD PTR [rbp-0x30],rax
    6875:	48 8b 7d f8          	mov    rdi,QWORD PTR [rbp-0x8]
    6879:	e8 b2 0a 00 00       	call   7330 <_ZNKSt7__cxx1112basic_stringIcSt11char_traitsIcESaIcEE4sizeEv>
    687e:	48 8b 7d c8          	mov    rdi,QWORD PTR [rbp-0x38]
    6882:	48 8b 75 d0          	mov    rsi,QWORD PTR [rbp-0x30]
    6886:	48 89 c2             	mov    rdx,rax
    6889:	e8 42 27 00 00       	call   8fd0 <_ZNSt11char_traitsIcE7compareEPKcS2_m>
    688e:	89 45 dc             	mov    DWORD PTR [rbp-0x24],eax
    6891:	eb 00                	jmp    6893 <_ZSteqIcSt11char_traitsIcESaIcEEbRKNSt7__cxx1112basic_stringIT_T0_T1_EESA_+0x73>
    6893:	8b 45 dc             	mov    eax,DWORD PTR [rbp-0x24]
    6896:	83 f8 00             	cmp    eax,0x0
    6899:	0f 95 c0             	setne  al
    689c:	34 ff                	xor    al,0xff
    689e:	88 45 ef             	mov    BYTE PTR [rbp-0x11],al
    68a1:	8a 45 ef             	mov    al,BYTE PTR [rbp-0x11]
      return __lhs.size() == __rhs.size()
    68a4:	24 01                	and    al,0x1
    68a6:	48 83 c4 40          	add    rsp,0x40
    68aa:	5d                   	pop    rbp
    68ab:	c3                   	ret
    68ac:	f3 0f 1e fa          	endbr64
    68b0:	48 89 c7             	mov    rdi,rax
	       && !_Traits::compare(__lhs.data(), __rhs.data(), __lhs.size());
    68b3:	e8 28 00 00 00       	call   68e0 <__clang_call_terminate>
    68b8:	0f 1f 84 00 00 00 00 	nop    DWORD PTR [rax+rax*1+0x0]
    68bf:	00 

00000000000068c0 <_ZNKSt7__cxx1112basic_stringIcSt11char_traitsIcESaIcEE7_M_dataEv>:
      { return _M_dataplus._M_p; }
    68c0:	f3 0f 1e fa          	endbr64
    68c4:	55                   	push   rbp
    68c5:	48 89 e5             	mov    rbp,rsp
    68c8:	48 89 7d f8          	mov    QWORD PTR [rbp-0x8],rdi
    68cc:	48 8b 45 f8          	mov    rax,QWORD PTR [rbp-0x8]
    68d0:	48 8b 00             	mov    rax,QWORD PTR [rax]
    68d3:	5d                   	pop    rbp
    68d4:	c3                   	ret
    68d5:	66 2e 0f 1f 84 00 00 	cs nop WORD PTR [rax+rax*1+0x0]
    68dc:	00 00 00 
    68df:	90                   	nop

00000000000068e0 <__clang_call_terminate>:
    68e0:	f3 0f 1e fa          	endbr64
    68e4:	55                   	push   rbp
    68e5:	48 89 e5             	mov    rbp,rsp
    68e8:	e8 d3 db ff ff       	call   44c0 <__cxa_begin_catch@plt>
    68ed:	e8 9e db ff ff       	call   4490 <_ZSt9terminatev@plt>
    68f2:	66 2e 0f 1f 84 00 00 	cs nop WORD PTR [rax+rax*1+0x0]
    68f9:	00 00 00 
    68fc:	0f 1f 40 00          	nop    DWORD PTR [rax+0x0]

0000000000006900 <_ZNSt7__cxx1112basic_stringIcSt11char_traitsIcESaIcEE13_M_local_dataEv>:
      {
    6900:	f3 0f 1e fa          	endbr64
    6904:	55                   	push   rbp
    6905:	48 89 e5             	mov    rbp,rsp
    6908:	48 83 ec 10          	sub    rsp,0x10
    690c:	48 89 7d f8          	mov    QWORD PTR [rbp-0x8],rdi
    6910:	48 8b 7d f8          	mov    rdi,QWORD PTR [rbp-0x8]
	return std::pointer_traits<pointer>::pointer_to(*_M_local_buf);
    6914:	48 83 c7 10          	add    rdi,0x10
    6918:	e8 e3 01 00 00       	call   6b00 <_ZNSt19__ptr_traits_ptr_toIPccLb0EE10pointer_toERc>
    691d:	48 83 c4 10          	add    rsp,0x10
    6921:	5d                   	pop    rbp
    6922:	c3                   	ret
    6923:	66 2e 0f 1f 84 00 00 	cs nop WORD PTR [rax+rax*1+0x0]
    692a:	00 00 00 
    692d:	0f 1f 00             	nop    DWORD PTR [rax]

0000000000006930 <_ZNKSt7__cxx1112basic_stringIcSt11char_traitsIcESaIcEE16_M_get_allocatorEv>:
      { return _M_dataplus; }
    6930:	f3 0f 1e fa          	endbr64
    6934:	55                   	push   rbp
    6935:	48 89 e5             	mov    rbp,rsp
    6938:	48 89 7d f8          	mov    QWORD PTR [rbp-0x8],rdi
    693c:	48 8b 45 f8          	mov    rax,QWORD PTR [rbp-0x8]
    6940:	5d                   	pop    rbp
    6941:	c3                   	ret
    6942:	66 2e 0f 1f 84 00 00 	cs nop WORD PTR [rax+rax*1+0x0]
    6949:	00 00 00 
    694c:	0f 1f 40 00          	nop    DWORD PTR [rax+0x0]

0000000000006950 <_ZNSt7__cxx1112basic_stringIcSt11char_traitsIcESaIcEE12_Alloc_hiderC2EPcOS3_>:
	: allocator_type(std::move(__a)), _M_p(__dat) { }
    6950:	f3 0f 1e fa          	endbr64
    6954:	55                   	push   rbp
    6955:	48 89 e5             	mov    rbp,rsp
    6958:	48 89 7d d8          	mov    QWORD PTR [rbp-0x28],rdi
    695c:	48 89 75 d0          	mov    QWORD PTR [rbp-0x30],rsi
    6960:	48 89 55 c8          	mov    QWORD PTR [rbp-0x38],rdx
    6964:	48 8b 45 d8          	mov    rax,QWORD PTR [rbp-0x28]
    6968:	48 8b 4d c8          	mov    rcx,QWORD PTR [rbp-0x38]
    696c:	48 89 45 e8          	mov    QWORD PTR [rbp-0x18],rax
    6970:	48 89 4d e0          	mov    QWORD PTR [rbp-0x20],rcx
    6974:	48 8b 55 e8          	mov    rdx,QWORD PTR [rbp-0x18]
    6978:	48 8b 4d e0          	mov    rcx,QWORD PTR [rbp-0x20]
    697c:	48 89 55 f8          	mov    QWORD PTR [rbp-0x8],rdx
    6980:	48 89 4d f0          	mov    QWORD PTR [rbp-0x10],rcx
    6984:	48 8b 4d d0          	mov    rcx,QWORD PTR [rbp-0x30]
    6988:	48 89 08             	mov    QWORD PTR [rax],rcx
    698b:	5d                   	pop    rbp
    698c:	c3                   	ret
    698d:	0f 1f 00             	nop    DWORD PTR [rax]

0000000000006990 <_ZNSt7__cxx1112basic_stringIcSt11char_traitsIcESaIcEE12_M_constructIPcEEvT_S7_St20forward_iterator_tag>:
      _GLIBCXX20_CONSTEXPR
      void
      basic_string<_CharT, _Traits, _Alloc>::
      _M_construct(_InIterator __beg, _InIterator __end,
		   std::forward_iterator_tag)
      {
    6990:	f3 0f 1e fa          	endbr64
    6994:	55                   	push   rbp
    6995:	48 89 e5             	mov    rbp,rsp
    6998:	48 81 ec 90 00 00 00 	sub    rsp,0x90
    699f:	64 48 8b 04 25 28 00 	mov    rax,QWORD PTR fs:0x28
    69a6:	00 00 
    69a8:	48 89 45 f8          	mov    QWORD PTR [rbp-0x8],rax
    69ac:	48 89 7d a8          	mov    QWORD PTR [rbp-0x58],rdi
    69b0:	48 89 75 a0          	mov    QWORD PTR [rbp-0x60],rsi
    69b4:	48 89 55 98          	mov    QWORD PTR [rbp-0x68],rdx
    69b8:	48 8b 45 a8          	mov    rax,QWORD PTR [rbp-0x58]
    69bc:	48 89 45 80          	mov    QWORD PTR [rbp-0x80],rax
	size_type __dnew = static_cast<size_type>(std::distance(__beg, __end));
    69c0:	48 8b 4d a0          	mov    rcx,QWORD PTR [rbp-0x60]
    69c4:	48 8b 45 98          	mov    rax,QWORD PTR [rbp-0x68]
    69c8:	48 89 4d f0          	mov    QWORD PTR [rbp-0x10],rcx
    69cc:	48 89 45 b8          	mov    QWORD PTR [rbp-0x48],rax
    inline _GLIBCXX17_CONSTEXPR
    typename iterator_traits<_InputIterator>::difference_type
    distance(_InputIterator __first, _InputIterator __last)
    {
      // concept requirements -- taken care of in __distance
      return std::__distance(__first, __last,
    69d0:	48 8b 4d f0          	mov    rcx,QWORD PTR [rbp-0x10]
    69d4:	48 8b 45 b8          	mov    rax,QWORD PTR [rbp-0x48]
    69d8:	48 8d 55 f0          	lea    rdx,[rbp-0x10]
    69dc:	48 89 55 d8          	mov    QWORD PTR [rbp-0x28],rdx
    69e0:	48 89 4d d0          	mov    QWORD PTR [rbp-0x30],rcx
    69e4:	48 89 45 c8          	mov    QWORD PTR [rbp-0x38],rax
      return __last - __first;
    69e8:	48 8b 45 c8          	mov    rax,QWORD PTR [rbp-0x38]
    69ec:	48 8b 4d d0          	mov    rcx,QWORD PTR [rbp-0x30]
    69f0:	48 29 c8             	sub    rax,rcx
    69f3:	48 89 45 e8          	mov    QWORD PTR [rbp-0x18],rax

	if (__dnew > size_type(_S_local_capacity))
    69f7:	48 83 7d e8 0f       	cmp    QWORD PTR [rbp-0x18],0xf
    69fc:	76 2c                	jbe    6a2a <_ZNSt7__cxx1112basic_stringIcSt11char_traitsIcESaIcEE12_M_constructIPcEEvT_S7_St20forward_iterator_tag+0x9a>
    69fe:	48 8b 7d 80          	mov    rdi,QWORD PTR [rbp-0x80]
	  {
	    _M_data(_M_create(__dnew, size_type(0)));
    6a02:	48 8d 75 e8          	lea    rsi,[rbp-0x18]
    6a06:	31 c0                	xor    eax,eax
    6a08:	89 c2                	mov    edx,eax
    6a0a:	e8 31 01 00 00       	call   6b40 <_ZNSt7__cxx1112basic_stringIcSt11char_traitsIcESaIcEE9_M_createERmm>
    6a0f:	48 8b 7d 80          	mov    rdi,QWORD PTR [rbp-0x80]
    6a13:	48 89 c6             	mov    rsi,rax
    6a16:	e8 05 01 00 00       	call   6b20 <_ZNSt7__cxx1112basic_stringIcSt11char_traitsIcESaIcEE7_M_dataEPc>
    6a1b:	48 8b 7d 80          	mov    rdi,QWORD PTR [rbp-0x80]
	    _M_capacity(__dnew);
    6a1f:	48 8b 75 e8          	mov    rsi,QWORD PTR [rbp-0x18]
    6a23:	e8 e8 01 00 00       	call   6c10 <_ZNSt7__cxx1112basic_stringIcSt11char_traitsIcESaIcEE11_M_capacityEm>
	  }
    6a28:	eb 08                	jmp    6a32 <_ZNSt7__cxx1112basic_stringIcSt11char_traitsIcESaIcEE12_M_constructIPcEEvT_S7_St20forward_iterator_tag+0xa2>
    6a2a:	48 8b 45 80          	mov    rax,QWORD PTR [rbp-0x80]
    6a2e:	48 89 45 c0          	mov    QWORD PTR [rbp-0x40],rax
    6a32:	48 8b 75 80          	mov    rsi,QWORD PTR [rbp-0x80]
    6a36:	48 8d 7d e0          	lea    rdi,[rbp-0x20]

	  _GLIBCXX20_CONSTEXPR
	  ~_Guard() { if (_M_guarded) _M_guarded->_M_dispose(); }

	  basic_string* _M_guarded;
	} __guard(this);
    6a3a:	e8 f1 01 00 00       	call   6c30 <_ZZNSt7__cxx1112basic_stringIcSt11char_traitsIcESaIcEE12_M_constructIPcEEvT_S7_St20forward_iterator_tagEN6_GuardC2EPS4_>
    6a3f:	48 8b 7d 80          	mov    rdi,QWORD PTR [rbp-0x80]

	this->_S_copy_chars(_M_data(), __beg, __end);
    6a43:	e8 78 fe ff ff       	call   68c0 <_ZNKSt7__cxx1112basic_stringIcSt11char_traitsIcESaIcEE7_M_dataEv>
    6a48:	48 89 c7             	mov    rdi,rax
    6a4b:	48 8b 75 a0          	mov    rsi,QWORD PTR [rbp-0x60]
    6a4f:	48 8b 55 98          	mov    rdx,QWORD PTR [rbp-0x68]
    6a53:	e8 f8 01 00 00       	call   6c50 <_ZNSt7__cxx1112basic_stringIcSt11char_traitsIcESaIcEE13_S_copy_charsEPcS5_S5_>
    6a58:	48 8b 7d 80          	mov    rdi,QWORD PTR [rbp-0x80]

	__guard._M_guarded = 0;
    6a5c:	48 c7 45 e0 00 00 00 	mov    QWORD PTR [rbp-0x20],0x0
    6a63:	00 

	_M_set_length(__dnew);
    6a64:	48 8b 75 e8          	mov    rsi,QWORD PTR [rbp-0x18]
    6a68:	e8 23 02 00 00       	call   6c90 <_ZNSt7__cxx1112basic_stringIcSt11char_traitsIcESaIcEE13_M_set_lengthEm>
    6a6d:	eb 00                	jmp    6a6f <_ZNSt7__cxx1112basic_stringIcSt11char_traitsIcESaIcEE12_M_constructIPcEEvT_S7_St20forward_iterator_tag+0xdf>
    6a6f:	48 8d 7d e0          	lea    rdi,[rbp-0x20]
      }
    6a73:	e8 88 02 00 00       	call   6d00 <_ZZNSt7__cxx1112basic_stringIcSt11char_traitsIcESaIcEE12_M_constructIPcEEvT_S7_St20forward_iterator_tagEN6_GuardD2Ev>
    6a78:	64 48 8b 04 25 28 00 	mov    rax,QWORD PTR fs:0x28
    6a7f:	00 00 
    6a81:	48 8b 4d f8          	mov    rcx,QWORD PTR [rbp-0x8]
    6a85:	48 39 c8             	cmp    rax,rcx
    6a88:	75 4b                	jne    6ad5 <_ZNSt7__cxx1112basic_stringIcSt11char_traitsIcESaIcEE12_M_constructIPcEEvT_S7_St20forward_iterator_tag+0x145>
    6a8a:	48 81 c4 90 00 00 00 	add    rsp,0x90
    6a91:	5d                   	pop    rbp
    6a92:	c3                   	ret
    6a93:	f3 0f 1e fa          	endbr64
    6a97:	48 89 c1             	mov    rcx,rax
    6a9a:	89 d0                	mov    eax,edx
    6a9c:	48 89 4d 90          	mov    QWORD PTR [rbp-0x70],rcx
    6aa0:	89 45 8c             	mov    DWORD PTR [rbp-0x74],eax
    6aa3:	48 8d 7d e0          	lea    rdi,[rbp-0x20]
    6aa7:	e8 54 02 00 00       	call   6d00 <_ZZNSt7__cxx1112basic_stringIcSt11char_traitsIcESaIcEE12_M_constructIPcEEvT_S7_St20forward_iterator_tagEN6_GuardD2Ev>
    6aac:	48 8b 45 90          	mov    rax,QWORD PTR [rbp-0x70]
    6ab0:	48 89 85 78 ff ff ff 	mov    QWORD PTR [rbp-0x88],rax
    6ab7:	64 48 8b 04 25 28 00 	mov    rax,QWORD PTR fs:0x28
    6abe:	00 00 
    6ac0:	48 8b 4d f8          	mov    rcx,QWORD PTR [rbp-0x8]
    6ac4:	48 39 c8             	cmp    rax,rcx
    6ac7:	75 0c                	jne    6ad5 <_ZNSt7__cxx1112basic_stringIcSt11char_traitsIcESaIcEE12_M_constructIPcEEvT_S7_St20forward_iterator_tag+0x145>
    6ac9:	48 8b bd 78 ff ff ff 	mov    rdi,QWORD PTR [rbp-0x88]
    6ad0:	e8 ab d9 ff ff       	call   4480 <_Unwind_Resume@plt>
    6ad5:	e8 f6 da ff ff       	call   45d0 <__stack_chk_fail@plt>
    6ada:	66 0f 1f 44 00 00    	nop    WORD PTR [rax+rax*1+0x0]

0000000000006ae0 <_ZNSt7__cxx1112basic_stringIcSt11char_traitsIcESaIcEE12_Alloc_hiderD2Ev>:
      struct _Alloc_hider : allocator_type // TODO check __is_final
    6ae0:	f3 0f 1e fa          	endbr64
    6ae4:	55                   	push   rbp
    6ae5:	48 89 e5             	mov    rbp,rsp
    6ae8:	48 89 7d f0          	mov    QWORD PTR [rbp-0x10],rdi
    6aec:	48 8b 45 f0          	mov    rax,QWORD PTR [rbp-0x10]
    6af0:	48 89 45 f8          	mov    QWORD PTR [rbp-0x8],rax
    6af4:	5d                   	pop    rbp
    6af5:	c3                   	ret
    6af6:	66 2e 0f 1f 84 00 00 	cs nop WORD PTR [rax+rax*1+0x0]
    6afd:	00 00 00 

0000000000006b00 <_ZNSt19__ptr_traits_ptr_toIPccLb0EE10pointer_toERc>:
       *  @param  __r  A reference to an object of type `element_type`
       *  @return `addressof(__r)`
      */
      static _GLIBCXX20_CONSTEXPR pointer
      pointer_to(element_type& __r) noexcept
      { return std::addressof(__r); }
    6b00:	f3 0f 1e fa          	endbr64
    6b04:	55                   	push   rbp
    6b05:	48 89 e5             	mov    rbp,rsp
    6b08:	48 89 7d f8          	mov    QWORD PTR [rbp-0x8],rdi
    6b0c:	48 8b 45 f8          	mov    rax,QWORD PTR [rbp-0x8]
    6b10:	5d                   	pop    rbp
    6b11:	c3                   	ret
    6b12:	66 2e 0f 1f 84 00 00 	cs nop WORD PTR [rax+rax*1+0x0]
    6b19:	00 00 00 
    6b1c:	0f 1f 40 00          	nop    DWORD PTR [rax+0x0]

0000000000006b20 <_ZNSt7__cxx1112basic_stringIcSt11char_traitsIcESaIcEE7_M_dataEPc>:
      { _M_dataplus._M_p = __p; }
    6b20:	f3 0f 1e fa          	endbr64
    6b24:	55                   	push   rbp
    6b25:	48 89 e5             	mov    rbp,rsp
    6b28:	48 89 7d f8          	mov    QWORD PTR [rbp-0x8],rdi
    6b2c:	48 89 75 f0          	mov    QWORD PTR [rbp-0x10],rsi
    6b30:	48 8b 45 f8          	mov    rax,QWORD PTR [rbp-0x8]
    6b34:	48 8b 4d f0          	mov    rcx,QWORD PTR [rbp-0x10]
    6b38:	48 89 08             	mov    QWORD PTR [rax],rcx
    6b3b:	5d                   	pop    rbp
    6b3c:	c3                   	ret
    6b3d:	0f 1f 00             	nop    DWORD PTR [rax]

0000000000006b40 <_ZNSt7__cxx1112basic_stringIcSt11char_traitsIcESaIcEE9_M_createERmm>:
    {
    6b40:	f3 0f 1e fa          	endbr64
    6b44:	55                   	push   rbp
    6b45:	48 89 e5             	mov    rbp,rsp
    6b48:	48 83 ec 30          	sub    rsp,0x30
    6b4c:	48 89 7d f8          	mov    QWORD PTR [rbp-0x8],rdi
    6b50:	48 89 75 f0          	mov    QWORD PTR [rbp-0x10],rsi
    6b54:	48 89 55 e8          	mov    QWORD PTR [rbp-0x18],rdx
    6b58:	48 8b 7d f8          	mov    rdi,QWORD PTR [rbp-0x8]
    6b5c:	48 89 7d d8          	mov    QWORD PTR [rbp-0x28],rdi
      if (__capacity > max_size())
    6b60:	48 8b 45 f0          	mov    rax,QWORD PTR [rbp-0x10]
    6b64:	48 8b 00             	mov    rax,QWORD PTR [rax]
    6b67:	48 89 45 e0          	mov    QWORD PTR [rbp-0x20],rax
    6b6b:	e8 d0 01 00 00       	call   6d40 <_ZNKSt7__cxx1112basic_stringIcSt11char_traitsIcESaIcEE8max_sizeEv>
    6b70:	48 89 c1             	mov    rcx,rax
    6b73:	48 8b 45 e0          	mov    rax,QWORD PTR [rbp-0x20]
    6b77:	48 39 c8             	cmp    rax,rcx
    6b7a:	76 0c                	jbe    6b88 <_ZNSt7__cxx1112basic_stringIcSt11char_traitsIcESaIcEE9_M_createERmm+0x48>
	std::__throw_length_error(__N("basic_string::_M_create"));
    6b7c:	48 8d 3d a7 a5 00 00 	lea    rdi,[rip+0xa5a7]        # 1112a <_IO_stdin_used+0x12a>
    6b83:	e8 88 d9 ff ff       	call   4510 <_ZSt20__throw_length_errorPKc@plt>
      if (__capacity > __old_capacity && __capacity < 2 * __old_capacity)
    6b88:	48 8b 45 f0          	mov    rax,QWORD PTR [rbp-0x10]
    6b8c:	48 8b 00             	mov    rax,QWORD PTR [rax]
    6b8f:	48 3b 45 e8          	cmp    rax,QWORD PTR [rbp-0x18]
    6b93:	76 56                	jbe    6beb <_ZNSt7__cxx1112basic_stringIcSt11char_traitsIcESaIcEE9_M_createERmm+0xab>
    6b95:	48 8b 45 f0          	mov    rax,QWORD PTR [rbp-0x10]
    6b99:	48 8b 00             	mov    rax,QWORD PTR [rax]
    6b9c:	48 8b 4d e8          	mov    rcx,QWORD PTR [rbp-0x18]
    6ba0:	48 d1 e1             	shl    rcx,1
    6ba3:	48 39 c8             	cmp    rax,rcx
    6ba6:	73 43                	jae    6beb <_ZNSt7__cxx1112basic_stringIcSt11char_traitsIcESaIcEE9_M_createERmm+0xab>
    6ba8:	48 8b 7d d8          	mov    rdi,QWORD PTR [rbp-0x28]
	  __capacity = 2 * __old_capacity;
    6bac:	48 8b 4d e8          	mov    rcx,QWORD PTR [rbp-0x18]
    6bb0:	48 d1 e1             	shl    rcx,1
    6bb3:	48 8b 45 f0          	mov    rax,QWORD PTR [rbp-0x10]
    6bb7:	48 89 08             	mov    QWORD PTR [rax],rcx
	  if (__capacity > max_size())
    6bba:	48 8b 45 f0          	mov    rax,QWORD PTR [rbp-0x10]
    6bbe:	48 8b 00             	mov    rax,QWORD PTR [rax]
    6bc1:	48 89 45 d0          	mov    QWORD PTR [rbp-0x30],rax
    6bc5:	e8 76 01 00 00       	call   6d40 <_ZNKSt7__cxx1112basic_stringIcSt11char_traitsIcESaIcEE8max_sizeEv>
    6bca:	48 89 c1             	mov    rcx,rax
    6bcd:	48 8b 45 d0          	mov    rax,QWORD PTR [rbp-0x30]
    6bd1:	48 39 c8             	cmp    rax,rcx
    6bd4:	76 13                	jbe    6be9 <_ZNSt7__cxx1112basic_stringIcSt11char_traitsIcESaIcEE9_M_createERmm+0xa9>
    6bd6:	48 8b 7d d8          	mov    rdi,QWORD PTR [rbp-0x28]
	    __capacity = max_size();
    6bda:	e8 61 01 00 00       	call   6d40 <_ZNKSt7__cxx1112basic_stringIcSt11char_traitsIcESaIcEE8max_sizeEv>
    6bdf:	48 89 c1             	mov    rcx,rax
    6be2:	48 8b 45 f0          	mov    rax,QWORD PTR [rbp-0x10]
    6be6:	48 89 08             	mov    QWORD PTR [rax],rcx
	}
    6be9:	eb 00                	jmp    6beb <_ZNSt7__cxx1112basic_stringIcSt11char_traitsIcESaIcEE9_M_createERmm+0xab>
    6beb:	48 8b 7d d8          	mov    rdi,QWORD PTR [rbp-0x28]
      return _S_allocate(_M_get_allocator(), __capacity + 1);
    6bef:	e8 ec 01 00 00       	call   6de0 <_ZNSt7__cxx1112basic_stringIcSt11char_traitsIcESaIcEE16_M_get_allocatorEv>
    6bf4:	48 89 c7             	mov    rdi,rax
    6bf7:	48 8b 45 f0          	mov    rax,QWORD PTR [rbp-0x10]
    6bfb:	48 8b 30             	mov    rsi,QWORD PTR [rax]
    6bfe:	48 83 c6 01          	add    rsi,0x1
    6c02:	e8 79 01 00 00       	call   6d80 <_ZNSt7__cxx1112basic_stringIcSt11char_traitsIcESaIcEE11_S_allocateERS3_m>
    6c07:	48 83 c4 30          	add    rsp,0x30
    6c0b:	5d                   	pop    rbp
    6c0c:	c3                   	ret
    6c0d:	0f 1f 00             	nop    DWORD PTR [rax]

0000000000006c10 <_ZNSt7__cxx1112basic_stringIcSt11char_traitsIcESaIcEE11_M_capacityEm>:
      { _M_allocated_capacity = __capacity; }
    6c10:	f3 0f 1e fa          	endbr64
    6c14:	55                   	push   rbp
    6c15:	48 89 e5             	mov    rbp,rsp
    6c18:	48 89 7d f8          	mov    QWORD PTR [rbp-0x8],rdi
    6c1c:	48 89 75 f0          	mov    QWORD PTR [rbp-0x10],rsi
    6c20:	48 8b 45 f8          	mov    rax,QWORD PTR [rbp-0x8]
    6c24:	48 8b 4d f0          	mov    rcx,QWORD PTR [rbp-0x10]
    6c28:	48 89 48 10          	mov    QWORD PTR [rax+0x10],rcx
    6c2c:	5d                   	pop    rbp
    6c2d:	c3                   	ret
    6c2e:	66 90                	xchg   ax,ax

0000000000006c30 <_ZZNSt7__cxx1112basic_stringIcSt11char_traitsIcESaIcEE12_M_constructIPcEEvT_S7_St20forward_iterator_tagEN6_GuardC2EPS4_>:
	  explicit _Guard(basic_string* __s) : _M_guarded(__s) { }
    6c30:	f3 0f 1e fa          	endbr64
    6c34:	55                   	push   rbp
    6c35:	48 89 e5             	mov    rbp,rsp
    6c38:	48 89 7d f8          	mov    QWORD PTR [rbp-0x8],rdi
    6c3c:	48 89 75 f0          	mov    QWORD PTR [rbp-0x10],rsi
    6c40:	48 8b 45 f8          	mov    rax,QWORD PTR [rbp-0x8]
    6c44:	48 8b 4d f0          	mov    rcx,QWORD PTR [rbp-0x10]
    6c48:	48 89 08             	mov    QWORD PTR [rax],rcx
    6c4b:	5d                   	pop    rbp
    6c4c:	c3                   	ret
    6c4d:	0f 1f 00             	nop    DWORD PTR [rax]

0000000000006c50 <_ZNSt7__cxx1112basic_stringIcSt11char_traitsIcESaIcEE13_S_copy_charsEPcS5_S5_>:
      { _S_copy(__p, __k1, __k2 - __k1); }
    6c50:	f3 0f 1e fa          	endbr64
    6c54:	55                   	push   rbp
    6c55:	48 89 e5             	mov    rbp,rsp
    6c58:	48 83 ec 20          	sub    rsp,0x20
    6c5c:	48 89 7d f8          	mov    QWORD PTR [rbp-0x8],rdi
    6c60:	48 89 75 f0          	mov    QWORD PTR [rbp-0x10],rsi
    6c64:	48 89 55 e8          	mov    QWORD PTR [rbp-0x18],rdx
    6c68:	48 8b 7d f8          	mov    rdi,QWORD PTR [rbp-0x8]
    6c6c:	48 8b 75 f0          	mov    rsi,QWORD PTR [rbp-0x10]
    6c70:	48 8b 55 e8          	mov    rdx,QWORD PTR [rbp-0x18]
    6c74:	48 29 f2             	sub    rdx,rsi
    6c77:	e8 e4 01 00 00       	call   6e60 <_ZNSt7__cxx1112basic_stringIcSt11char_traitsIcESaIcEE7_S_copyEPcPKcm>
    6c7c:	eb 00                	jmp    6c7e <_ZNSt7__cxx1112basic_stringIcSt11char_traitsIcESaIcEE13_S_copy_charsEPcS5_S5_+0x2e>
    6c7e:	48 83 c4 20          	add    rsp,0x20
    6c82:	5d                   	pop    rbp
    6c83:	c3                   	ret
    6c84:	f3 0f 1e fa          	endbr64
    6c88:	48 89 c7             	mov    rdi,rax
    6c8b:	e8 50 fc ff ff       	call   68e0 <__clang_call_terminate>

0000000000006c90 <_ZNSt7__cxx1112basic_stringIcSt11char_traitsIcESaIcEE13_M_set_lengthEm>:
      {
    6c90:	f3 0f 1e fa          	endbr64
    6c94:	55                   	push   rbp
    6c95:	48 89 e5             	mov    rbp,rsp
    6c98:	48 83 ec 30          	sub    rsp,0x30
    6c9c:	64 48 8b 04 25 28 00 	mov    rax,QWORD PTR fs:0x28
    6ca3:	00 00 
    6ca5:	48 89 45 f8          	mov    QWORD PTR [rbp-0x8],rax
    6ca9:	48 89 7d e8          	mov    QWORD PTR [rbp-0x18],rdi
    6cad:	48 89 75 e0          	mov    QWORD PTR [rbp-0x20],rsi
    6cb1:	48 8b 7d e8          	mov    rdi,QWORD PTR [rbp-0x18]
    6cb5:	48 89 7d d8          	mov    QWORD PTR [rbp-0x28],rdi
	_M_length(__n);
    6cb9:	48 8b 75 e0          	mov    rsi,QWORD PTR [rbp-0x20]
    6cbd:	e8 5e 02 00 00       	call   6f20 <_ZNSt7__cxx1112basic_stringIcSt11char_traitsIcESaIcEE9_M_lengthEm>
    6cc2:	48 8b 7d d8          	mov    rdi,QWORD PTR [rbp-0x28]
	traits_type::assign(_M_data()[__n], _CharT());
    6cc6:	e8 f5 fb ff ff       	call   68c0 <_ZNKSt7__cxx1112basic_stringIcSt11char_traitsIcESaIcEE7_M_dataEv>
    6ccb:	48 89 c7             	mov    rdi,rax
    6cce:	48 8b 45 e0          	mov    rax,QWORD PTR [rbp-0x20]
    6cd2:	48 01 c7             	add    rdi,rax
    6cd5:	c6 45 f7 00          	mov    BYTE PTR [rbp-0x9],0x0
    6cd9:	48 8d 75 f7          	lea    rsi,[rbp-0x9]
    6cdd:	e8 ce 01 00 00       	call   6eb0 <_ZNSt11char_traitsIcE6assignERcRKc>
      }
    6ce2:	64 48 8b 04 25 28 00 	mov    rax,QWORD PTR fs:0x28
    6ce9:	00 00 
    6ceb:	48 8b 4d f8          	mov    rcx,QWORD PTR [rbp-0x8]
    6cef:	48 39 c8             	cmp    rax,rcx
    6cf2:	75 06                	jne    6cfa <_ZNSt7__cxx1112basic_stringIcSt11char_traitsIcESaIcEE13_M_set_lengthEm+0x6a>
    6cf4:	48 83 c4 30          	add    rsp,0x30
    6cf8:	5d                   	pop    rbp
    6cf9:	c3                   	ret
    6cfa:	e8 d1 d8 ff ff       	call   45d0 <__stack_chk_fail@plt>
    6cff:	90                   	nop

0000000000006d00 <_ZZNSt7__cxx1112basic_stringIcSt11char_traitsIcESaIcEE12_M_constructIPcEEvT_S7_St20forward_iterator_tagEN6_GuardD2Ev>:
	  ~_Guard() { if (_M_guarded) _M_guarded->_M_dispose(); }
    6d00:	f3 0f 1e fa          	endbr64
    6d04:	55                   	push   rbp
    6d05:	48 89 e5             	mov    rbp,rsp
    6d08:	48 83 ec 10          	sub    rsp,0x10
    6d0c:	48 89 7d f8          	mov    QWORD PTR [rbp-0x8],rdi
    6d10:	48 8b 45 f8          	mov    rax,QWORD PTR [rbp-0x8]
    6d14:	48 89 45 f0          	mov    QWORD PTR [rbp-0x10],rax
    6d18:	48 83 38 00          	cmp    QWORD PTR [rax],0x0
    6d1c:	74 10                	je     6d2e <_ZZNSt7__cxx1112basic_stringIcSt11char_traitsIcESaIcEE12_M_constructIPcEEvT_S7_St20forward_iterator_tagEN6_GuardD2Ev+0x2e>
    6d1e:	48 8b 45 f0          	mov    rax,QWORD PTR [rbp-0x10]
    6d22:	48 8b 38             	mov    rdi,QWORD PTR [rax]
    6d25:	e8 16 02 00 00       	call   6f40 <_ZNSt7__cxx1112basic_stringIcSt11char_traitsIcESaIcEE10_M_disposeEv>
    6d2a:	eb 00                	jmp    6d2c <_ZZNSt7__cxx1112basic_stringIcSt11char_traitsIcESaIcEE12_M_constructIPcEEvT_S7_St20forward_iterator_tagEN6_GuardD2Ev+0x2c>
    6d2c:	eb 00                	jmp    6d2e <_ZZNSt7__cxx1112basic_stringIcSt11char_traitsIcESaIcEE12_M_constructIPcEEvT_S7_St20forward_iterator_tagEN6_GuardD2Ev+0x2e>
    6d2e:	48 83 c4 10          	add    rsp,0x10
    6d32:	5d                   	pop    rbp
    6d33:	c3                   	ret
    6d34:	f3 0f 1e fa          	endbr64
    6d38:	48 89 c7             	mov    rdi,rax
    6d3b:	e8 a0 fb ff ff       	call   68e0 <__clang_call_terminate>

0000000000006d40 <_ZNKSt7__cxx1112basic_stringIcSt11char_traitsIcESaIcEE8max_sizeEv>:
      { return (_Alloc_traits::max_size(_M_get_allocator()) - 1) / 2; }
    6d40:	f3 0f 1e fa          	endbr64
    6d44:	55                   	push   rbp
    6d45:	48 89 e5             	mov    rbp,rsp
    6d48:	48 83 ec 10          	sub    rsp,0x10
    6d4c:	48 89 7d f0          	mov    QWORD PTR [rbp-0x10],rdi
    6d50:	48 8b 7d f0          	mov    rdi,QWORD PTR [rbp-0x10]
    6d54:	e8 d7 fb ff ff       	call   6930 <_ZNKSt7__cxx1112basic_stringIcSt11char_traitsIcESaIcEE16_M_get_allocatorEv>
    6d59:	48 89 45 f8          	mov    QWORD PTR [rbp-0x8],rax
    6d5d:	48 c7 c0 ff ff ff ff 	mov    rax,0xffffffffffffffff
    6d64:	48 83 e8 01          	sub    rax,0x1
    6d68:	48 d1 e8             	shr    rax,1
    6d6b:	48 83 c4 10          	add    rsp,0x10
    6d6f:	5d                   	pop    rbp
    6d70:	c3                   	ret
    6d71:	66 2e 0f 1f 84 00 00 	cs nop WORD PTR [rax+rax*1+0x0]
    6d78:	00 00 00 
    6d7b:	0f 1f 44 00 00       	nop    DWORD PTR [rax+rax*1+0x0]

0000000000006d80 <_ZNSt7__cxx1112basic_stringIcSt11char_traitsIcESaIcEE11_S_allocateERS3_m>:
      {
    6d80:	f3 0f 1e fa          	endbr64
    6d84:	55                   	push   rbp
    6d85:	48 89 e5             	mov    rbp,rsp
    6d88:	48 83 ec 40          	sub    rsp,0x40
    6d8c:	48 89 7d d8          	mov    QWORD PTR [rbp-0x28],rdi
    6d90:	48 89 75 d0          	mov    QWORD PTR [rbp-0x30],rsi
	pointer __p = _Alloc_traits::allocate(__a, __n);
    6d94:	48 8b 4d d8          	mov    rcx,QWORD PTR [rbp-0x28]
    6d98:	48 8b 45 d0          	mov    rax,QWORD PTR [rbp-0x30]
    6d9c:	48 89 4d e8          	mov    QWORD PTR [rbp-0x18],rcx
    6da0:	48 89 45 e0          	mov    QWORD PTR [rbp-0x20],rax
      { return __a.allocate(__n); }
    6da4:	48 8b 4d e8          	mov    rcx,QWORD PTR [rbp-0x18]
    6da8:	48 8b 45 e0          	mov    rax,QWORD PTR [rbp-0x20]
    6dac:	48 89 4d f8          	mov    QWORD PTR [rbp-0x8],rcx
    6db0:	48 89 45 f0          	mov    QWORD PTR [rbp-0x10],rax
    6db4:	48 8b 7d f8          	mov    rdi,QWORD PTR [rbp-0x8]
	    if (__builtin_mul_overflow(__n, sizeof(_Tp), &__n))
	      std::__throw_bad_array_new_length();
	    return static_cast<_Tp*>(::operator new(__n));
	  }

	return __allocator_base<_Tp>::allocate(__n, 0);
    6db8:	48 8b 75 f0          	mov    rsi,QWORD PTR [rbp-0x10]
    6dbc:	31 c0                	xor    eax,eax
    6dbe:	89 c2                	mov    edx,eax
    6dc0:	e8 3b 00 00 00       	call   6e00 <_ZNSt15__new_allocatorIcE8allocateEmPKv>
    6dc5:	48 89 45 c8          	mov    QWORD PTR [rbp-0x38],rax
	return __p;
    6dc9:	48 8b 45 c8          	mov    rax,QWORD PTR [rbp-0x38]
    6dcd:	48 83 c4 40          	add    rsp,0x40
    6dd1:	5d                   	pop    rbp
    6dd2:	c3                   	ret
    6dd3:	66 2e 0f 1f 84 00 00 	cs nop WORD PTR [rax+rax*1+0x0]
    6dda:	00 00 00 
    6ddd:	0f 1f 00             	nop    DWORD PTR [rax]

0000000000006de0 <_ZNSt7__cxx1112basic_stringIcSt11char_traitsIcESaIcEE16_M_get_allocatorEv>:
      { return _M_dataplus; }
    6de0:	f3 0f 1e fa          	endbr64
    6de4:	55                   	push   rbp
    6de5:	48 89 e5             	mov    rbp,rsp
    6de8:	48 89 7d f8          	mov    QWORD PTR [rbp-0x8],rdi
    6dec:	48 8b 45 f8          	mov    rax,QWORD PTR [rbp-0x8]
    6df0:	5d                   	pop    rbp
    6df1:	c3                   	ret
    6df2:	66 2e 0f 1f 84 00 00 	cs nop WORD PTR [rax+rax*1+0x0]
    6df9:	00 00 00 
    6dfc:	0f 1f 40 00          	nop    DWORD PTR [rax+0x0]

0000000000006e00 <_ZNSt15__new_allocatorIcE8allocateEmPKv>:

      // NB: __n is permitted to be 0.  The C++ standard says nothing
      // about what the return value is when __n == 0.
      _GLIBCXX_NODISCARD _Tp*
      allocate(size_type __n, const void* = static_cast<const void*>(0))
      {
    6e00:	f3 0f 1e fa          	endbr64
    6e04:	55                   	push   rbp
    6e05:	48 89 e5             	mov    rbp,rsp
    6e08:	48 83 ec 20          	sub    rsp,0x20
    6e0c:	48 89 7d f0          	mov    QWORD PTR [rbp-0x10],rdi
    6e10:	48 89 75 e8          	mov    QWORD PTR [rbp-0x18],rsi
    6e14:	48 89 55 e0          	mov    QWORD PTR [rbp-0x20],rdx
    6e18:	48 8b 4d f0          	mov    rcx,QWORD PTR [rbp-0x10]
	// _GLIBCXX_RESOLVE_LIB_DEFECTS
	// 3308. std::allocator<void>().allocate(n)
	static_assert(sizeof(_Tp) != 0, "cannot allocate incomplete types");
#endif

	if (__builtin_expect(__n > this->_M_max_size(), false))
    6e1c:	48 8b 45 e8          	mov    rax,QWORD PTR [rbp-0x18]
    6e20:	48 89 4d f8          	mov    QWORD PTR [rbp-0x8],rcx
    6e24:	48 b9 ff ff ff ff ff 	movabs rcx,0x7fffffffffffffff
    6e2b:	ff ff 7f 
    6e2e:	48 39 c8             	cmp    rax,rcx
    6e31:	76 11                	jbe    6e44 <_ZNSt15__new_allocatorIcE8allocateEmPKv+0x44>
	  {
	    // _GLIBCXX_RESOLVE_LIB_DEFECTS
	    // 3190. allocator::allocate sometimes returns too little storage
	    if (__n > (std::size_t(-1) / sizeof(_Tp)))
    6e33:	48 83 7d e8 ff       	cmp    QWORD PTR [rbp-0x18],0xffffffffffffffff
    6e38:	76 05                	jbe    6e3f <_ZNSt15__new_allocatorIcE8allocateEmPKv+0x3f>
	      std::__throw_bad_array_new_length();
    6e3a:	e8 11 d7 ff ff       	call   4550 <_ZSt28__throw_bad_array_new_lengthv@plt>
	    std::__throw_bad_alloc();
    6e3f:	e8 6c d6 ff ff       	call   44b0 <_ZSt17__throw_bad_allocv@plt>
	    std::align_val_t __al = std::align_val_t(alignof(_Tp));
	    return static_cast<_Tp*>(_GLIBCXX_OPERATOR_NEW(__n * sizeof(_Tp),
							   __al));
	  }
#endif
	return static_cast<_Tp*>(_GLIBCXX_OPERATOR_NEW(__n * sizeof(_Tp)));
    6e44:	48 8b 7d e8          	mov    rdi,QWORD PTR [rbp-0x18]
    6e48:	48 c1 e7 00          	shl    rdi,0x0
    6e4c:	e8 3f d7 ff ff       	call   4590 <_Znwm@plt>
    6e51:	48 83 c4 20          	add    rsp,0x20
    6e55:	5d                   	pop    rbp
    6e56:	c3                   	ret
    6e57:	66 0f 1f 84 00 00 00 	nop    WORD PTR [rax+rax*1+0x0]
    6e5e:	00 00 

0000000000006e60 <_ZNSt7__cxx1112basic_stringIcSt11char_traitsIcESaIcEE7_S_copyEPcPKcm>:
      {
    6e60:	f3 0f 1e fa          	endbr64
    6e64:	55                   	push   rbp
    6e65:	48 89 e5             	mov    rbp,rsp
    6e68:	48 83 ec 20          	sub    rsp,0x20
    6e6c:	48 89 7d f8          	mov    QWORD PTR [rbp-0x8],rdi
    6e70:	48 89 75 f0          	mov    QWORD PTR [rbp-0x10],rsi
    6e74:	48 89 55 e8          	mov    QWORD PTR [rbp-0x18],rdx
	if (__n == 1)
    6e78:	48 83 7d e8 01       	cmp    QWORD PTR [rbp-0x18],0x1
    6e7d:	75 0f                	jne    6e8e <_ZNSt7__cxx1112basic_stringIcSt11char_traitsIcESaIcEE7_S_copyEPcPKcm+0x2e>
	  traits_type::assign(*__d, *__s);
    6e7f:	48 8b 7d f8          	mov    rdi,QWORD PTR [rbp-0x8]
    6e83:	48 8b 75 f0          	mov    rsi,QWORD PTR [rbp-0x10]
    6e87:	e8 24 00 00 00       	call   6eb0 <_ZNSt11char_traitsIcE6assignERcRKc>
    6e8c:	eb 11                	jmp    6e9f <_ZNSt7__cxx1112basic_stringIcSt11char_traitsIcESaIcEE7_S_copyEPcPKcm+0x3f>
	  traits_type::copy(__d, __s, __n);
    6e8e:	48 8b 7d f8          	mov    rdi,QWORD PTR [rbp-0x8]
    6e92:	48 8b 75 f0          	mov    rsi,QWORD PTR [rbp-0x10]
    6e96:	48 8b 55 e8          	mov    rdx,QWORD PTR [rbp-0x18]
    6e9a:	e8 31 00 00 00       	call   6ed0 <_ZNSt11char_traitsIcE4copyEPcPKcm>
      }
    6e9f:	48 83 c4 20          	add    rsp,0x20
    6ea3:	5d                   	pop    rbp
    6ea4:	c3                   	ret
    6ea5:	66 2e 0f 1f 84 00 00 	cs nop WORD PTR [rax+rax*1+0x0]
    6eac:	00 00 00 
    6eaf:	90                   	nop

0000000000006eb0 <_ZNSt11char_traitsIcE6assignERcRKc>:
      using comparison_category = strong_ordering;
#endif

      static _GLIBCXX17_CONSTEXPR void
      assign(char_type& __c1, const char_type& __c2) _GLIBCXX_NOEXCEPT
      {
    6eb0:	f3 0f 1e fa          	endbr64
    6eb4:	55                   	push   rbp
    6eb5:	48 89 e5             	mov    rbp,rsp
    6eb8:	48 89 7d f8          	mov    QWORD PTR [rbp-0x8],rdi
    6ebc:	48 89 75 f0          	mov    QWORD PTR [rbp-0x10],rsi
#if __cpp_constexpr_dynamic_alloc
	if (std::__is_constant_evaluated())
	  std::construct_at(__builtin_addressof(__c1), __c2);
	else
#endif
	__c1 = __c2;
    6ec0:	48 8b 45 f0          	mov    rax,QWORD PTR [rbp-0x10]
    6ec4:	8a 08                	mov    cl,BYTE PTR [rax]
    6ec6:	48 8b 45 f8          	mov    rax,QWORD PTR [rbp-0x8]
    6eca:	88 08                	mov    BYTE PTR [rax],cl
      }
    6ecc:	5d                   	pop    rbp
    6ecd:	c3                   	ret
    6ece:	66 90                	xchg   ax,ax

0000000000006ed0 <_ZNSt11char_traitsIcE4copyEPcPKcm>:
	return static_cast<char_type*>(__builtin_memmove(__s1, __s2, __n));
      }

      static _GLIBCXX20_CONSTEXPR char_type*
      copy(char_type* __s1, const char_type* __s2, size_t __n)
      {
    6ed0:	f3 0f 1e fa          	endbr64
    6ed4:	55                   	push   rbp
    6ed5:	48 89 e5             	mov    rbp,rsp
    6ed8:	48 83 ec 30          	sub    rsp,0x30
    6edc:	48 89 7d f0          	mov    QWORD PTR [rbp-0x10],rdi
    6ee0:	48 89 75 e8          	mov    QWORD PTR [rbp-0x18],rsi
    6ee4:	48 89 55 e0          	mov    QWORD PTR [rbp-0x20],rdx
	if (__n == 0)
    6ee8:	48 83 7d e0 00       	cmp    QWORD PTR [rbp-0x20],0x0
    6eed:	75 0a                	jne    6ef9 <_ZNSt11char_traitsIcE4copyEPcPKcm+0x29>
	  return __s1;
    6eef:	48 8b 45 f0          	mov    rax,QWORD PTR [rbp-0x10]
    6ef3:	48 89 45 f8          	mov    QWORD PTR [rbp-0x8],rax
    6ef7:	eb 1d                	jmp    6f16 <_ZNSt11char_traitsIcE4copyEPcPKcm+0x46>
#if __cplusplus >= 202002L
	if (std::__is_constant_evaluated())
	  return __gnu_cxx::char_traits<char_type>::copy(__s1, __s2, __n);
#endif
	return static_cast<char_type*>(__builtin_memcpy(__s1, __s2, __n));
    6ef9:	48 8b 7d f0          	mov    rdi,QWORD PTR [rbp-0x10]
    6efd:	48 89 7d d8          	mov    QWORD PTR [rbp-0x28],rdi
    6f01:	48 8b 75 e8          	mov    rsi,QWORD PTR [rbp-0x18]
    6f05:	48 8b 55 e0          	mov    rdx,QWORD PTR [rbp-0x20]
    6f09:	e8 52 d6 ff ff       	call   4560 <memcpy@plt>
    6f0e:	48 8b 45 d8          	mov    rax,QWORD PTR [rbp-0x28]
    6f12:	48 89 45 f8          	mov    QWORD PTR [rbp-0x8],rax
      }
    6f16:	48 8b 45 f8          	mov    rax,QWORD PTR [rbp-0x8]
    6f1a:	48 83 c4 30          	add    rsp,0x30
    6f1e:	5d                   	pop    rbp
    6f1f:	c3                   	ret

0000000000006f20 <_ZNSt7__cxx1112basic_stringIcSt11char_traitsIcESaIcEE9_M_lengthEm>:
      { _M_string_length = __length; }
    6f20:	f3 0f 1e fa          	endbr64
    6f24:	55                   	push   rbp
    6f25:	48 89 e5             	mov    rbp,rsp
    6f28:	48 89 7d f8          	mov    QWORD PTR [rbp-0x8],rdi
    6f2c:	48 89 75 f0          	mov    QWORD PTR [rbp-0x10],rsi
    6f30:	48 8b 45 f8          	mov    rax,QWORD PTR [rbp-0x8]
    6f34:	48 8b 4d f0          	mov    rcx,QWORD PTR [rbp-0x10]
    6f38:	48 89 48 08          	mov    QWORD PTR [rax+0x8],rcx
    6f3c:	5d                   	pop    rbp
    6f3d:	c3                   	ret
    6f3e:	66 90                	xchg   ax,ax

0000000000006f40 <_ZNSt7__cxx1112basic_stringIcSt11char_traitsIcESaIcEE10_M_disposeEv>:
      {
    6f40:	f3 0f 1e fa          	endbr64
    6f44:	55                   	push   rbp
    6f45:	48 89 e5             	mov    rbp,rsp
    6f48:	48 83 ec 10          	sub    rsp,0x10
    6f4c:	48 89 7d f8          	mov    QWORD PTR [rbp-0x8],rdi
    6f50:	48 8b 7d f8          	mov    rdi,QWORD PTR [rbp-0x8]
    6f54:	48 89 7d f0          	mov    QWORD PTR [rbp-0x10],rdi
	if (!_M_is_local())
    6f58:	e8 23 00 00 00       	call   6f80 <_ZNKSt7__cxx1112basic_stringIcSt11char_traitsIcESaIcEE11_M_is_localEv>
    6f5d:	a8 01                	test   al,0x1
    6f5f:	75 0d                	jne    6f6e <_ZNSt7__cxx1112basic_stringIcSt11char_traitsIcESaIcEE10_M_disposeEv+0x2e>
    6f61:	48 8b 7d f0          	mov    rdi,QWORD PTR [rbp-0x10]
	  _M_destroy(_M_allocated_capacity);
    6f65:	48 8b 77 10          	mov    rsi,QWORD PTR [rdi+0x10]
    6f69:	e8 72 00 00 00       	call   6fe0 <_ZNSt7__cxx1112basic_stringIcSt11char_traitsIcESaIcEE10_M_destroyEm>
      }
    6f6e:	48 83 c4 10          	add    rsp,0x10
    6f72:	5d                   	pop    rbp
    6f73:	c3                   	ret
    6f74:	66 2e 0f 1f 84 00 00 	cs nop WORD PTR [rax+rax*1+0x0]
    6f7b:	00 00 00 
    6f7e:	66 90                	xchg   ax,ax

0000000000006f80 <_ZNKSt7__cxx1112basic_stringIcSt11char_traitsIcESaIcEE11_M_is_localEv>:
      {
    6f80:	f3 0f 1e fa          	endbr64
    6f84:	55                   	push   rbp
    6f85:	48 89 e5             	mov    rbp,rsp
    6f88:	48 83 ec 20          	sub    rsp,0x20
    6f8c:	48 89 7d f0          	mov    QWORD PTR [rbp-0x10],rdi
    6f90:	48 8b 7d f0          	mov    rdi,QWORD PTR [rbp-0x10]
    6f94:	48 89 7d e0          	mov    QWORD PTR [rbp-0x20],rdi
	if (_M_data() == _M_local_data())
    6f98:	e8 23 f9 ff ff       	call   68c0 <_ZNKSt7__cxx1112basic_stringIcSt11char_traitsIcESaIcEE7_M_dataEv>
    6f9d:	48 8b 7d e0          	mov    rdi,QWORD PTR [rbp-0x20]
    6fa1:	48 89 45 e8          	mov    QWORD PTR [rbp-0x18],rax
    6fa5:	e8 b6 00 00 00       	call   7060 <_ZNKSt7__cxx1112basic_stringIcSt11char_traitsIcESaIcEE13_M_local_dataEv>
    6faa:	48 89 c1             	mov    rcx,rax
    6fad:	48 8b 45 e8          	mov    rax,QWORD PTR [rbp-0x18]
    6fb1:	48 39 c8             	cmp    rax,rcx
    6fb4:	75 11                	jne    6fc7 <_ZNKSt7__cxx1112basic_stringIcSt11char_traitsIcESaIcEE11_M_is_localEv+0x47>
    6fb6:	48 8b 45 e0          	mov    rax,QWORD PTR [rbp-0x20]
	    if (_M_string_length > _S_local_capacity)
    6fba:	48 83 78 08 0f       	cmp    QWORD PTR [rax+0x8],0xf
    6fbf:	76 00                	jbe    6fc1 <_ZNKSt7__cxx1112basic_stringIcSt11char_traitsIcESaIcEE11_M_is_localEv+0x41>
	    return true;
    6fc1:	c6 45 ff 01          	mov    BYTE PTR [rbp-0x1],0x1
    6fc5:	eb 04                	jmp    6fcb <_ZNKSt7__cxx1112basic_stringIcSt11char_traitsIcESaIcEE11_M_is_localEv+0x4b>
	return false;
    6fc7:	c6 45 ff 00          	mov    BYTE PTR [rbp-0x1],0x0
      }
    6fcb:	8a 45 ff             	mov    al,BYTE PTR [rbp-0x1]
    6fce:	24 01                	and    al,0x1
    6fd0:	48 83 c4 20          	add    rsp,0x20
    6fd4:	5d                   	pop    rbp
    6fd5:	c3                   	ret
    6fd6:	66 2e 0f 1f 84 00 00 	cs nop WORD PTR [rax+rax*1+0x0]
    6fdd:	00 00 00 

0000000000006fe0 <_ZNSt7__cxx1112basic_stringIcSt11char_traitsIcESaIcEE10_M_destroyEm>:
      { _Alloc_traits::deallocate(_M_get_allocator(), _M_data(), __size + 1); }
    6fe0:	f3 0f 1e fa          	endbr64
    6fe4:	55                   	push   rbp
    6fe5:	48 89 e5             	mov    rbp,rsp
    6fe8:	48 83 ec 50          	sub    rsp,0x50
    6fec:	48 89 7d c8          	mov    QWORD PTR [rbp-0x38],rdi
    6ff0:	48 89 75 c0          	mov    QWORD PTR [rbp-0x40],rsi
    6ff4:	48 8b 7d c8          	mov    rdi,QWORD PTR [rbp-0x38]
    6ff8:	48 89 7d b0          	mov    QWORD PTR [rbp-0x50],rdi
    6ffc:	e8 df fd ff ff       	call   6de0 <_ZNSt7__cxx1112basic_stringIcSt11char_traitsIcESaIcEE16_M_get_allocatorEv>
    7001:	48 8b 7d b0          	mov    rdi,QWORD PTR [rbp-0x50]
    7005:	48 89 45 b8          	mov    QWORD PTR [rbp-0x48],rax
    7009:	e8 b2 f8 ff ff       	call   68c0 <_ZNKSt7__cxx1112basic_stringIcSt11char_traitsIcESaIcEE7_M_dataEv>
    700e:	48 8b 55 b8          	mov    rdx,QWORD PTR [rbp-0x48]
    7012:	48 89 c1             	mov    rcx,rax
    7015:	48 8b 45 c0          	mov    rax,QWORD PTR [rbp-0x40]
    7019:	48 83 c0 01          	add    rax,0x1
    701d:	48 89 55 e0          	mov    QWORD PTR [rbp-0x20],rdx
    7021:	48 89 4d d8          	mov    QWORD PTR [rbp-0x28],rcx
    7025:	48 89 45 d0          	mov    QWORD PTR [rbp-0x30],rax
      { __a.deallocate(__p, __n); }
    7029:	48 8b 55 e0          	mov    rdx,QWORD PTR [rbp-0x20]
    702d:	48 8b 4d d8          	mov    rcx,QWORD PTR [rbp-0x28]
    7031:	48 8b 45 d0          	mov    rax,QWORD PTR [rbp-0x30]
    7035:	48 89 55 f8          	mov    QWORD PTR [rbp-0x8],rdx
    7039:	48 89 4d f0          	mov    QWORD PTR [rbp-0x10],rcx
    703d:	48 89 45 e8          	mov    QWORD PTR [rbp-0x18],rax
    7041:	48 8b 7d f8          	mov    rdi,QWORD PTR [rbp-0x8]
	if (std::__is_constant_evaluated())
	  {
	    ::operator delete(__p);
	    return;
	  }
	__allocator_base<_Tp>::deallocate(__p, __n);
    7045:	48 8b 75 f0          	mov    rsi,QWORD PTR [rbp-0x10]
    7049:	48 8b 55 e8          	mov    rdx,QWORD PTR [rbp-0x18]
    704d:	e8 5e 00 00 00       	call   70b0 <_ZNSt15__new_allocatorIcE10deallocateEPcm>
    7052:	eb 00                	jmp    7054 <_ZNSt7__cxx1112basic_stringIcSt11char_traitsIcESaIcEE10_M_destroyEm+0x74>
    7054:	48 83 c4 50          	add    rsp,0x50
    7058:	5d                   	pop    rbp
    7059:	c3                   	ret
    705a:	66 0f 1f 44 00 00    	nop    WORD PTR [rax+rax*1+0x0]

0000000000007060 <_ZNKSt7__cxx1112basic_stringIcSt11char_traitsIcESaIcEE13_M_local_dataEv>:
      {
    7060:	f3 0f 1e fa          	endbr64
    7064:	55                   	push   rbp
    7065:	48 89 e5             	mov    rbp,rsp
    7068:	48 83 ec 10          	sub    rsp,0x10
    706c:	48 89 7d f8          	mov    QWORD PTR [rbp-0x8],rdi
    7070:	48 8b 7d f8          	mov    rdi,QWORD PTR [rbp-0x8]
	return std::pointer_traits<const_pointer>::pointer_to(*_M_local_buf);
    7074:	48 83 c7 10          	add    rdi,0x10
    7078:	e8 13 00 00 00       	call   7090 <_ZNSt19__ptr_traits_ptr_toIPKcS0_Lb0EE10pointer_toERS0_>
    707d:	48 83 c4 10          	add    rsp,0x10
    7081:	5d                   	pop    rbp
    7082:	c3                   	ret
    7083:	66 2e 0f 1f 84 00 00 	cs nop WORD PTR [rax+rax*1+0x0]
    708a:	00 00 00 
    708d:	0f 1f 00             	nop    DWORD PTR [rax]

0000000000007090 <_ZNSt19__ptr_traits_ptr_toIPKcS0_Lb0EE10pointer_toERS0_>:
    7090:	f3 0f 1e fa          	endbr64
    7094:	55                   	push   rbp
    7095:	48 89 e5             	mov    rbp,rsp
    7098:	48 89 7d f8          	mov    QWORD PTR [rbp-0x8],rdi
    709c:	48 8b 45 f8          	mov    rax,QWORD PTR [rbp-0x8]
    70a0:	5d                   	pop    rbp
    70a1:	c3                   	ret
    70a2:	66 2e 0f 1f 84 00 00 	cs nop WORD PTR [rax+rax*1+0x0]
    70a9:	00 00 00 
    70ac:	0f 1f 40 00          	nop    DWORD PTR [rax+0x0]

00000000000070b0 <_ZNSt15__new_allocatorIcE10deallocateEPcm>:
      }

      // __p is not permitted to be a null pointer.
      void
      deallocate(_Tp* __p, size_type __n __attribute__ ((__unused__)))
      {
    70b0:	f3 0f 1e fa          	endbr64
    70b4:	55                   	push   rbp
    70b5:	48 89 e5             	mov    rbp,rsp
    70b8:	48 83 ec 20          	sub    rsp,0x20
    70bc:	48 89 7d f8          	mov    QWORD PTR [rbp-0x8],rdi
    70c0:	48 89 75 f0          	mov    QWORD PTR [rbp-0x10],rsi
    70c4:	48 89 55 e8          	mov    QWORD PTR [rbp-0x18],rdx
	    _GLIBCXX_OPERATOR_DELETE(_GLIBCXX_SIZED_DEALLOC(__p, __n),
				     std::align_val_t(alignof(_Tp)));
	    return;
	  }
#endif
	_GLIBCXX_OPERATOR_DELETE(_GLIBCXX_SIZED_DEALLOC(__p, __n));
    70c8:	48 8b 7d f0          	mov    rdi,QWORD PTR [rbp-0x10]
    70cc:	48 8b 75 e8          	mov    rsi,QWORD PTR [rbp-0x18]
    70d0:	48 c1 e6 00          	shl    rsi,0x0
    70d4:	e8 c7 d4 ff ff       	call   45a0 <_ZdlPvm@plt>
      }
    70d9:	48 83 c4 20          	add    rsp,0x20
    70dd:	5d                   	pop    rbp
    70de:	c3                   	ret
    70df:	90                   	nop

00000000000070e0 <_ZNSt7__cxx1112basic_stringIcSt11char_traitsIcESaIcEE12_Alloc_hiderC2EPcRKS3_>:
	: allocator_type(__a), _M_p(__dat) { }
    70e0:	f3 0f 1e fa          	endbr64
    70e4:	55                   	push   rbp
    70e5:	48 89 e5             	mov    rbp,rsp
    70e8:	48 89 7d d8          	mov    QWORD PTR [rbp-0x28],rdi
    70ec:	48 89 75 d0          	mov    QWORD PTR [rbp-0x30],rsi
    70f0:	48 89 55 c8          	mov    QWORD PTR [rbp-0x38],rdx
    70f4:	48 8b 45 d8          	mov    rax,QWORD PTR [rbp-0x28]
    70f8:	48 8b 4d c8          	mov    rcx,QWORD PTR [rbp-0x38]
    70fc:	48 89 45 e8          	mov    QWORD PTR [rbp-0x18],rax
    7100:	48 89 4d e0          	mov    QWORD PTR [rbp-0x20],rcx
    7104:	48 8b 55 e8          	mov    rdx,QWORD PTR [rbp-0x18]
      : __allocator_base<_Tp>(__a) { }
    7108:	48 8b 4d e0          	mov    rcx,QWORD PTR [rbp-0x20]
    710c:	48 89 55 f8          	mov    QWORD PTR [rbp-0x8],rdx
    7110:	48 89 4d f0          	mov    QWORD PTR [rbp-0x10],rcx
    7114:	48 8b 4d d0          	mov    rcx,QWORD PTR [rbp-0x30]
    7118:	48 89 08             	mov    QWORD PTR [rax],rcx
    711b:	5d                   	pop    rbp
    711c:	c3                   	ret
    711d:	0f 1f 00             	nop    DWORD PTR [rax]

0000000000007120 <_ZNSt11char_traitsIcE6lengthEPKc>:
      {
    7120:	f3 0f 1e fa          	endbr64
    7124:	55                   	push   rbp
    7125:	48 89 e5             	mov    rbp,rsp
    7128:	48 83 ec 10          	sub    rsp,0x10
    712c:	48 89 7d f8          	mov    QWORD PTR [rbp-0x8],rdi
	return __builtin_strlen(__s);
    7130:	48 8b 7d f8          	mov    rdi,QWORD PTR [rbp-0x8]
    7134:	e8 97 d3 ff ff       	call   44d0 <strlen@plt>
    7139:	48 83 c4 10          	add    rsp,0x10
    713d:	5d                   	pop    rbp
    713e:	c3                   	ret
    713f:	90                   	nop

0000000000007140 <_ZNSt7__cxx1112basic_stringIcSt11char_traitsIcESaIcEE12_M_constructIPKcEEvT_S8_St20forward_iterator_tag>:
      {
    7140:	f3 0f 1e fa          	endbr64
    7144:	55                   	push   rbp
    7145:	48 89 e5             	mov    rbp,rsp
    7148:	48 81 ec 90 00 00 00 	sub    rsp,0x90
    714f:	64 48 8b 04 25 28 00 	mov    rax,QWORD PTR fs:0x28
    7156:	00 00 
    7158:	48 89 45 f8          	mov    QWORD PTR [rbp-0x8],rax
    715c:	48 89 7d a8          	mov    QWORD PTR [rbp-0x58],rdi
    7160:	48 89 75 a0          	mov    QWORD PTR [rbp-0x60],rsi
    7164:	48 89 55 98          	mov    QWORD PTR [rbp-0x68],rdx
    7168:	48 8b 45 a8          	mov    rax,QWORD PTR [rbp-0x58]
    716c:	48 89 45 80          	mov    QWORD PTR [rbp-0x80],rax
	size_type __dnew = static_cast<size_type>(std::distance(__beg, __end));
    7170:	48 8b 4d a0          	mov    rcx,QWORD PTR [rbp-0x60]
    7174:	48 8b 45 98          	mov    rax,QWORD PTR [rbp-0x68]
    7178:	48 89 4d f0          	mov    QWORD PTR [rbp-0x10],rcx
    717c:	48 89 45 c0          	mov    QWORD PTR [rbp-0x40],rax
      return std::__distance(__first, __last,
    7180:	48 8b 4d f0          	mov    rcx,QWORD PTR [rbp-0x10]
    7184:	48 8b 45 c0          	mov    rax,QWORD PTR [rbp-0x40]
    7188:	48 8d 55 f0          	lea    rdx,[rbp-0x10]
    718c:	48 89 55 d8          	mov    QWORD PTR [rbp-0x28],rdx
    7190:	48 89 4d d0          	mov    QWORD PTR [rbp-0x30],rcx
    7194:	48 89 45 c8          	mov    QWORD PTR [rbp-0x38],rax
      return __last - __first;
    7198:	48 8b 45 c8          	mov    rax,QWORD PTR [rbp-0x38]
    719c:	48 8b 4d d0          	mov    rcx,QWORD PTR [rbp-0x30]
    71a0:	48 29 c8             	sub    rax,rcx
    71a3:	48 89 45 e8          	mov    QWORD PTR [rbp-0x18],rax
	if (__dnew > size_type(_S_local_capacity))
    71a7:	48 83 7d e8 0f       	cmp    QWORD PTR [rbp-0x18],0xf
    71ac:	76 2c                	jbe    71da <_ZNSt7__cxx1112basic_stringIcSt11char_traitsIcESaIcEE12_M_constructIPKcEEvT_S8_St20forward_iterator_tag+0x9a>
    71ae:	48 8b 7d 80          	mov    rdi,QWORD PTR [rbp-0x80]
	    _M_data(_M_create(__dnew, size_type(0)));
    71b2:	48 8d 75 e8          	lea    rsi,[rbp-0x18]
    71b6:	31 c0                	xor    eax,eax
    71b8:	89 c2                	mov    edx,eax
    71ba:	e8 81 f9 ff ff       	call   6b40 <_ZNSt7__cxx1112basic_stringIcSt11char_traitsIcESaIcEE9_M_createERmm>
    71bf:	48 8b 7d 80          	mov    rdi,QWORD PTR [rbp-0x80]
    71c3:	48 89 c6             	mov    rsi,rax
    71c6:	e8 55 f9 ff ff       	call   6b20 <_ZNSt7__cxx1112basic_stringIcSt11char_traitsIcESaIcEE7_M_dataEPc>
    71cb:	48 8b 7d 80          	mov    rdi,QWORD PTR [rbp-0x80]
	    _M_capacity(__dnew);
    71cf:	48 8b 75 e8          	mov    rsi,QWORD PTR [rbp-0x18]
    71d3:	e8 38 fa ff ff       	call   6c10 <_ZNSt7__cxx1112basic_stringIcSt11char_traitsIcESaIcEE11_M_capacityEm>
	  }
    71d8:	eb 08                	jmp    71e2 <_ZNSt7__cxx1112basic_stringIcSt11char_traitsIcESaIcEE12_M_constructIPKcEEvT_S8_St20forward_iterator_tag+0xa2>
    71da:	48 8b 45 80          	mov    rax,QWORD PTR [rbp-0x80]
    71de:	48 89 45 b8          	mov    QWORD PTR [rbp-0x48],rax
    71e2:	48 8b 75 80          	mov    rsi,QWORD PTR [rbp-0x80]
    71e6:	48 8d 7d e0          	lea    rdi,[rbp-0x20]
	} __guard(this);
    71ea:	e8 a1 00 00 00       	call   7290 <_ZZNSt7__cxx1112basic_stringIcSt11char_traitsIcESaIcEE12_M_constructIPKcEEvT_S8_St20forward_iterator_tagEN6_GuardC2EPS4_>
    71ef:	48 8b 7d 80          	mov    rdi,QWORD PTR [rbp-0x80]
	this->_S_copy_chars(_M_data(), __beg, __end);
    71f3:	e8 c8 f6 ff ff       	call   68c0 <_ZNKSt7__cxx1112basic_stringIcSt11char_traitsIcESaIcEE7_M_dataEv>
    71f8:	48 89 c7             	mov    rdi,rax
    71fb:	48 8b 75 a0          	mov    rsi,QWORD PTR [rbp-0x60]
    71ff:	48 8b 55 98          	mov    rdx,QWORD PTR [rbp-0x68]
    7203:	e8 a8 00 00 00       	call   72b0 <_ZNSt7__cxx1112basic_stringIcSt11char_traitsIcESaIcEE13_S_copy_charsEPcPKcS7_>
    7208:	48 8b 7d 80          	mov    rdi,QWORD PTR [rbp-0x80]
	__guard._M_guarded = 0;
    720c:	48 c7 45 e0 00 00 00 	mov    QWORD PTR [rbp-0x20],0x0
    7213:	00 
	_M_set_length(__dnew);
    7214:	48 8b 75 e8          	mov    rsi,QWORD PTR [rbp-0x18]
    7218:	e8 73 fa ff ff       	call   6c90 <_ZNSt7__cxx1112basic_stringIcSt11char_traitsIcESaIcEE13_M_set_lengthEm>
    721d:	eb 00                	jmp    721f <_ZNSt7__cxx1112basic_stringIcSt11char_traitsIcESaIcEE12_M_constructIPKcEEvT_S8_St20forward_iterator_tag+0xdf>
    721f:	48 8d 7d e0          	lea    rdi,[rbp-0x20]
      }
    7223:	e8 c8 00 00 00       	call   72f0 <_ZZNSt7__cxx1112basic_stringIcSt11char_traitsIcESaIcEE12_M_constructIPKcEEvT_S8_St20forward_iterator_tagEN6_GuardD2Ev>
    7228:	64 48 8b 04 25 28 00 	mov    rax,QWORD PTR fs:0x28
    722f:	00 00 
    7231:	48 8b 4d f8          	mov    rcx,QWORD PTR [rbp-0x8]
    7235:	48 39 c8             	cmp    rax,rcx
    7238:	75 4b                	jne    7285 <_ZNSt7__cxx1112basic_stringIcSt11char_traitsIcESaIcEE12_M_constructIPKcEEvT_S8_St20forward_iterator_tag+0x145>
    723a:	48 81 c4 90 00 00 00 	add    rsp,0x90
    7241:	5d                   	pop    rbp
    7242:	c3                   	ret
    7243:	f3 0f 1e fa          	endbr64
    7247:	48 89 c1             	mov    rcx,rax
    724a:	89 d0                	mov    eax,edx
    724c:	48 89 4d 90          	mov    QWORD PTR [rbp-0x70],rcx
    7250:	89 45 8c             	mov    DWORD PTR [rbp-0x74],eax
    7253:	48 8d 7d e0          	lea    rdi,[rbp-0x20]
    7257:	e8 94 00 00 00       	call   72f0 <_ZZNSt7__cxx1112basic_stringIcSt11char_traitsIcESaIcEE12_M_constructIPKcEEvT_S8_St20forward_iterator_tagEN6_GuardD2Ev>
    725c:	48 8b 45 90          	mov    rax,QWORD PTR [rbp-0x70]
    7260:	48 89 85 78 ff ff ff 	mov    QWORD PTR [rbp-0x88],rax
    7267:	64 48 8b 04 25 28 00 	mov    rax,QWORD PTR fs:0x28
    726e:	00 00 
    7270:	48 8b 4d f8          	mov    rcx,QWORD PTR [rbp-0x8]
    7274:	48 39 c8             	cmp    rax,rcx
    7277:	75 0c                	jne    7285 <_ZNSt7__cxx1112basic_stringIcSt11char_traitsIcESaIcEE12_M_constructIPKcEEvT_S8_St20forward_iterator_tag+0x145>
    7279:	48 8b bd 78 ff ff ff 	mov    rdi,QWORD PTR [rbp-0x88]
    7280:	e8 fb d1 ff ff       	call   4480 <_Unwind_Resume@plt>
    7285:	e8 46 d3 ff ff       	call   45d0 <__stack_chk_fail@plt>
    728a:	66 0f 1f 44 00 00    	nop    WORD PTR [rax+rax*1+0x0]

0000000000007290 <_ZZNSt7__cxx1112basic_stringIcSt11char_traitsIcESaIcEE12_M_constructIPKcEEvT_S8_St20forward_iterator_tagEN6_GuardC2EPS4_>:
	  explicit _Guard(basic_string* __s) : _M_guarded(__s) { }
    7290:	f3 0f 1e fa          	endbr64
    7294:	55                   	push   rbp
    7295:	48 89 e5             	mov    rbp,rsp
    7298:	48 89 7d f8          	mov    QWORD PTR [rbp-0x8],rdi
    729c:	48 89 75 f0          	mov    QWORD PTR [rbp-0x10],rsi
    72a0:	48 8b 45 f8          	mov    rax,QWORD PTR [rbp-0x8]
    72a4:	48 8b 4d f0          	mov    rcx,QWORD PTR [rbp-0x10]
    72a8:	48 89 08             	mov    QWORD PTR [rax],rcx
    72ab:	5d                   	pop    rbp
    72ac:	c3                   	ret
    72ad:	0f 1f 00             	nop    DWORD PTR [rax]

00000000000072b0 <_ZNSt7__cxx1112basic_stringIcSt11char_traitsIcESaIcEE13_S_copy_charsEPcPKcS7_>:
      { _S_copy(__p, __k1, __k2 - __k1); }
    72b0:	f3 0f 1e fa          	endbr64
    72b4:	55                   	push   rbp
    72b5:	48 89 e5             	mov    rbp,rsp
    72b8:	48 83 ec 20          	sub    rsp,0x20
    72bc:	48 89 7d f8          	mov    QWORD PTR [rbp-0x8],rdi
    72c0:	48 89 75 f0          	mov    QWORD PTR [rbp-0x10],rsi
    72c4:	48 89 55 e8          	mov    QWORD PTR [rbp-0x18],rdx
    72c8:	48 8b 7d f8          	mov    rdi,QWORD PTR [rbp-0x8]
    72cc:	48 8b 75 f0          	mov    rsi,QWORD PTR [rbp-0x10]
    72d0:	48 8b 55 e8          	mov    rdx,QWORD PTR [rbp-0x18]
    72d4:	48 29 f2             	sub    rdx,rsi
    72d7:	e8 84 fb ff ff       	call   6e60 <_ZNSt7__cxx1112basic_stringIcSt11char_traitsIcESaIcEE7_S_copyEPcPKcm>
    72dc:	eb 00                	jmp    72de <_ZNSt7__cxx1112basic_stringIcSt11char_traitsIcESaIcEE13_S_copy_charsEPcPKcS7_+0x2e>
    72de:	48 83 c4 20          	add    rsp,0x20
    72e2:	5d                   	pop    rbp
    72e3:	c3                   	ret
    72e4:	f3 0f 1e fa          	endbr64
    72e8:	48 89 c7             	mov    rdi,rax
    72eb:	e8 f0 f5 ff ff       	call   68e0 <__clang_call_terminate>

00000000000072f0 <_ZZNSt7__cxx1112basic_stringIcSt11char_traitsIcESaIcEE12_M_constructIPKcEEvT_S8_St20forward_iterator_tagEN6_GuardD2Ev>:
	  ~_Guard() { if (_M_guarded) _M_guarded->_M_dispose(); }
    72f0:	f3 0f 1e fa          	endbr64
    72f4:	55                   	push   rbp
    72f5:	48 89 e5             	mov    rbp,rsp
    72f8:	48 83 ec 10          	sub    rsp,0x10
    72fc:	48 89 7d f8          	mov    QWORD PTR [rbp-0x8],rdi
    7300:	48 8b 45 f8          	mov    rax,QWORD PTR [rbp-0x8]
    7304:	48 89 45 f0          	mov    QWORD PTR [rbp-0x10],rax
    7308:	48 83 38 00          	cmp    QWORD PTR [rax],0x0
    730c:	74 10                	je     731e <_ZZNSt7__cxx1112basic_stringIcSt11char_traitsIcESaIcEE12_M_constructIPKcEEvT_S8_St20forward_iterator_tagEN6_GuardD2Ev+0x2e>
    730e:	48 8b 45 f0          	mov    rax,QWORD PTR [rbp-0x10]
    7312:	48 8b 38             	mov    rdi,QWORD PTR [rax]
    7315:	e8 26 fc ff ff       	call   6f40 <_ZNSt7__cxx1112basic_stringIcSt11char_traitsIcESaIcEE10_M_disposeEv>
    731a:	eb 00                	jmp    731c <_ZZNSt7__cxx1112basic_stringIcSt11char_traitsIcESaIcEE12_M_constructIPKcEEvT_S8_St20forward_iterator_tagEN6_GuardD2Ev+0x2c>
    731c:	eb 00                	jmp    731e <_ZZNSt7__cxx1112basic_stringIcSt11char_traitsIcESaIcEE12_M_constructIPKcEEvT_S8_St20forward_iterator_tagEN6_GuardD2Ev+0x2e>
    731e:	48 83 c4 10          	add    rsp,0x10
    7322:	5d                   	pop    rbp
    7323:	c3                   	ret
    7324:	f3 0f 1e fa          	endbr64
    7328:	48 89 c7             	mov    rdi,rax
    732b:	e8 b0 f5 ff ff       	call   68e0 <__clang_call_terminate>

0000000000007330 <_ZNKSt7__cxx1112basic_stringIcSt11char_traitsIcESaIcEE4sizeEv>:
      { return _M_string_length; }
    7330:	f3 0f 1e fa          	endbr64
    7334:	55                   	push   rbp
    7335:	48 89 e5             	mov    rbp,rsp
    7338:	48 89 7d f8          	mov    QWORD PTR [rbp-0x8],rdi
    733c:	48 8b 45 f8          	mov    rax,QWORD PTR [rbp-0x8]
    7340:	48 8b 40 08          	mov    rax,QWORD PTR [rax+0x8]
    7344:	5d                   	pop    rbp
    7345:	c3                   	ret
    7346:	66 2e 0f 1f 84 00 00 	cs nop WORD PTR [rax+rax*1+0x0]
    734d:	00 00 00 

0000000000007350 <_ZNSt7__cxx1112basic_stringIcSt11char_traitsIcESaIcEE5clearEv>:
      { _M_set_length(0); }
    7350:	f3 0f 1e fa          	endbr64
    7354:	55                   	push   rbp
    7355:	48 89 e5             	mov    rbp,rsp
    7358:	48 83 ec 10          	sub    rsp,0x10
    735c:	48 89 7d f8          	mov    QWORD PTR [rbp-0x8],rdi
    7360:	48 8b 7d f8          	mov    rdi,QWORD PTR [rbp-0x8]
    7364:	31 c0                	xor    eax,eax
    7366:	89 c6                	mov    esi,eax
    7368:	e8 23 f9 ff ff       	call   6c90 <_ZNSt7__cxx1112basic_stringIcSt11char_traitsIcESaIcEE13_M_set_lengthEm>
    736d:	eb 00                	jmp    736f <_ZNSt7__cxx1112basic_stringIcSt11char_traitsIcESaIcEE5clearEv+0x1f>
    736f:	48 83 c4 10          	add    rsp,0x10
    7373:	5d                   	pop    rbp
    7374:	c3                   	ret
    7375:	f3 0f 1e fa          	endbr64
    7379:	48 89 c7             	mov    rdi,rax
    737c:	e8 5f f5 ff ff       	call   68e0 <__clang_call_terminate>
    7381:	66 2e 0f 1f 84 00 00 	cs nop WORD PTR [rax+rax*1+0x0]
    7388:	00 00 00 
    738b:	0f 1f 44 00 00       	nop    DWORD PTR [rax+rax*1+0x0]

0000000000007390 <_ZNSt12_Vector_baseINSt7__cxx1112basic_stringIcSt11char_traitsIcESaIcEEESaIS5_EEC2Ev>:
      _Vector_base() = default;
    7390:	f3 0f 1e fa          	endbr64
    7394:	55                   	push   rbp
    7395:	48 89 e5             	mov    rbp,rsp
    7398:	48 83 ec 10          	sub    rsp,0x10
    739c:	48 89 7d f8          	mov    QWORD PTR [rbp-0x8],rdi
    73a0:	48 8b 7d f8          	mov    rdi,QWORD PTR [rbp-0x8]
    73a4:	e8 07 00 00 00       	call   73b0 <_ZNSt12_Vector_baseINSt7__cxx1112basic_stringIcSt11char_traitsIcESaIcEEESaIS5_EE12_Vector_implC2EvQ26is_default_constructible_vIN9__gnu_cxx14__alloc_traitsIT0_NSB_10value_typeEE6rebindIT_E5otherEE>
    73a9:	48 83 c4 10          	add    rsp,0x10
    73ad:	5d                   	pop    rbp
    73ae:	c3                   	ret
    73af:	90                   	nop

